ccopy_reg
_reconstructor
p0
(capp
Map
p1
c__builtin__
object
p2
Ntp3
Rp4
(dp5
Vvertex
p6
(dp7
L2L
(lp8
F12944371.562791632
aF4888860.371305252
asL5L
(lp9
F12944624.760447828
aF4888685.521610339
asL7L
(lp10
F12944675.39993533
aF4888544.113115301
asL10L
(lp11
F12944675.400008224
aF4888814.509059123
asL11L
(lp12
F12944727.950465169
aF4889024.710896019
asL14L
(lp13
F12944825.407719972
aF4888766.735916444
asL15L
(lp14
F12944590.34599883
aF4888786.40516572
asL16L
(lp15
F12944420.609099852
aF4888729.82619174
asL17L
(lp16
F12944546.592885152
aF4888910.020966666
asL18L
(lp17
F12944607.095038295
aF4888737.989087326
asL19L
(lp18
F12944638.094232995
aF4888648.596016617
asL20L
(lp19
F12944652.60565286
aF4888607.558111539
asL21L
(lp20
F12944707.785553483
aF4888450.753915221
asL22L
(lp21
F12944663.282343585
aF4888435.530771095
asL23L
(lp22
F12944641.973776693
aF4888488.174592781
asL24L
(lp23
F12944556.752583511
aF4888464.759180864
asL25L
(lp24
F12944532.817716496
aF4888531.174696183
asL26L
(lp25
F12944536.604307018
aF4888599.784209999
asL27L
(lp26
F12944791.90138274
aF4888855.2709483355
asL28L
(lp27
F12944751.324935135
aF4888969.358929296
asL29L
(lp28
F12944640.283359924
aF4888933.083631329
asL30L
(lp29
F12944655.39111085
aF4889005.097581402
asL31L
(lp30
F12944610.100090196
aF4888989.836530567
asL32L
(lp31
F12944528.879254628
aF4888963.109411287
asL33L
(lp32
F12945032.897132503
aF4888843.8645124165
asL34L
(lp33
F12945066.346495807
aF4888770.461754267
asL35L
(lp34
F12944948.661431635
aF4889032.917200693
asL36L
(lp35
F12944890.179290926
aF4889011.39251788
asL37L
(lp36
F12944513.311064873
aF4889005.67330326
asL38L
(lp37
F12944340.04767804
aF4888947.690970872
asL39L
(lp38
F12944398.544837574
aF4888789.525213054
asL40L
(lp39
F12944503.218643887
aF4888828.186475459
asL41L
(lp40
F12944452.671914568
aF4888643.349463326
asL42L
(lp41
F12944482.659206282
aF4888654.249603221
asL43L
(lp42
F12944491.659428569
aF4888632.1619808525
asL44L
(lp43
F12944521.524552649
aF4888642.172572813
asL45L
(lp44
F12944424.757550243
aF4888717.902155447
asL46L
(lp45
F12944594.422543386
aF4888776.4238766935
asL47L
(lp46
F12944678.60846394
aF4888803.946152261
asL48L
(lp47
F12944795.57435558
aF4888844.903646279
asL49L
(lp48
F12944908.643466126
aF4888882.227431301
asL50L
(lp49
F12944927.671265503
aF4888903.816683464
asL51L
(lp50
F12944908.277524358
aF4888956.87500133
asL53L
(lp51
F12944193.572907712
aF4888652.251645866
asL55L
(lp52
F12943999.279491302
aF4888572.502910805
asL57L
(lp53
F12943995.635816704
aF4888582.758361153
asL58L
(lp54
F12944198.109354954
aF4888640.941726079
asL61L
(lp55
F12952126.9726608
aF4860538.741998155
asL62L
(lp56
F12952021.998718059
aF4860534.562714898
asL63L
(lp57
F12952019.048637966
aF4860579.797395101
asL64L
(lp58
F12951946.786763577
aF4860578.722386311
asL65L
(lp59
F12951940.579295151
aF4860532.16642385
asL66L
(lp60
F12952025.710184405
aF4860474.525674595
asL67L
(lp61
F12952130.350245645
aF4860478.516226256
asL68L
(lp62
F12952133.477359671
aF4860413.346917299
asL69L
(lp63
F12952028.656367231
aF4860412.211674656
asL70L
(lp64
F12951940.645425558
aF4860473.116664416
asL71L
(lp65
F12951941.345429566
aF4860408.01530372
asL72L
(lp66
F12952030.244146096
aF4860337.735278477
asL74L
(lp67
F12951942.438768413
aF4860337.038407657
asL75L
(lp68
F12951944.180938816
aF4860250.626758322
asL76L
(lp69
F12952031.986316498
aF4860259.337610338
asL77L
(lp70
F12952138.955595199
aF4860264.564121547
asL78L
(lp71
F12952140.0895532
aF4860180.627943909
asL79L
(lp72
F12951948.47656837
aF4860173.951532577
asL80L
(lp73
F12952038.941936813
aF4860176.622107297
asL81L
(lp74
F12952040.277224172
aF4860103.181582654
asL82L
(lp75
F12951953.150035925
aF4860097.840445949
asL83L
(lp76
F12952144.42925622
aF4860108.188891153
asL84L
(lp77
F12952145.43067717
aF4860034.748353776
asL85L
(lp78
F12952041.612486064
aF4860033.079250942
asL86L
(lp79
F12951954.819138758
aF4860031.076332637
asL87L
(lp80
F12952148.805337546
aF4859953.884411585
asL88L
(lp81
F12951956.01904321
aF4859949.450252507
asL89L
(lp82
F12952151.594639605
aF4859896.381284998
asL90L
(lp83
F12952045.626669483
aF4859897.721470989
asL91L
(lp84
F12951954.615891773
aF4859895.177662566
asL92L
(lp85
F12951955.737459783
aF4859859.625746668
asL93L
(lp86
F12952047.749555063
aF4859861.811501236
asL94L
(lp87
F12952048.985613476
aF4859816.954790284
asL95L
(lp88
F12951956.98571854
aF4859814.533679496
asL96L
(lp89
F12951958.551675817
aF4859741.741697602
asL97L
(lp90
F12952051.069167567
aF4859744.745821938
asL98L
(lp91
F12952153.127634343
aF4859844.130384031
asL99L
(lp92
F12952155.753582602
aF4859771.210028624
asL100L
(lp93
F12952156.872359697
aF4859717.882184908
asL101L
(lp94
F12952226.608772898
aF4859715.644659172
asL102L
(lp95
F12952305.295260595
aF4859716.763436265
asL103L
(lp96
F12952302.311873978
aF4859774.939247669
asL104L
(lp97
F12952298.9555996
aF4859846.167339954
asL105L
(lp98
F12952298.209767172
aF4859895.020103745
asL106L
(lp99
F12952299.768151036
aF4859960.320615667
asL107L
(lp100
F12952296.982694343
aF4860038.477401245
asL108L
(lp101
F12952305.502925107
aF4860039.95205681
asL109L
(lp102
F12952373.82866942
aF4860041.099012875
asL110L
(lp103
F12952375.139479922
aF4859962.450679609
asL111L
(lp104
F12952306.026345303
aF4860186.404560734
asL112L
(lp105
F12952371.865739902
aF4860167.947252903
asL113L
(lp106
F12952371.125906272
aF4860188.385081073
asL114L
(lp107
F12945001.92307647
aF4888913.935605337
asL115L
(lp108
F12945000.588561328
aF4888926.809713445
asL117L
(lp109
F12952546.004256867
aF4860280.788273857
asL118L
(lp110
F12952492.619599849
aF4860278.808906323
asL119L
(lp111
F12952488.053407313
aF4860368.1448217435
asL120L
(lp112
F12952484.986727813
aF4860440.640771146
asL121L
(lp113
F12952538.224031476
aF4860440.518100821
asL122L
(lp114
F12952417.274775071
aF4860365.5688235415
asL123L
(lp115
F12952536.48284853
aF4860487.313370437
asL124L
(lp116
F12952481.49074231
aF4860487.313370437
asL125L
(lp117
F12952478.616641814
aF4860535.7856718
asL126L
(lp118
F12952534.566143103
aF4860538.620588597
asL127L
(lp119
F12952474.741320524
aF4860592.221490906
asL128L
(lp120
F12952531.552446444
aF4860595.114649279
asL129L
(lp121
F12952530.06201012
aF4860624.922946327
asL130L
(lp122
F12952373.56844359
aF4860622.468146621
asL131L
(lp123
F12952374.094472386
aF4860592.221490906
asL132L
(lp124
F12952290.067658378
aF4860588.876087123
asL133L
(lp125
F12952288.84025251
aF4860570.114390757
asL134L
(lp126
F12952294.275904799
aF4860487.089507252
asL135L
(lp127
F12952297.352143947
aF4860418.378043438
asL136L
(lp128
F12952302.29901947
aF4860363.127872759
asL137L
(lp129
F12952306.173080368
aF4860274.07586649
asL138L
(lp130
F12952369.952980224
aF4860275.580568596
asL139L
(lp131
F12952497.208335578
aF4860169.059346604
asL140L
(lp132
F12952498.51853821
aF4860145.809176651
asL141L
(lp133
F12952550.940967573
aF4860147.3729532445
asL142L
(lp134
F12952127.048304934
aF4860564.712141673
asL143L
(lp135
F12952399.33138352
aF4859894.407518704
asL144L
(lp136
F12952399.675424991
aF4859846.723952954
asL145L
(lp137
F12952534.077577213
aF4859845.956100389
asL146L
(lp138
F12952193.516462075
aF4860473.023706505
asL152L
(lp139
F12944871.110631991
aF4888637.952647356
asL158L
(lp140
F12952213.088892018
aF4860473.3679623315
asL159L
(lp141
F12952218.0610392
aF4860505.045418878
asL160L
(lp142
F12952152.94183192
aF4860490.610124452
asL161L
(lp143
F12952164.089067476
aF4860470.9620799245
asL162L
(lp144
F12952193.51859375
aF4860481.341386356
asL163L
(lp145
F12952212.23196714
aF4860482.362115814
asL164L
(lp146
F12952152.802843677
aF4860481.795057737
asL165L
(lp147
F12952101.199271187
aF4860492.796246081
asL166L
(lp148
F12952083.73344218
aF4860540.090054665
asL167L
(lp149
F12952084.18711356
aF4860558.236349211
asL168L
(lp150
F12952322.744773656
aF4860586.728013978
asL169L
(lp151
F12952323.626935432
aF4860573.174873988
asL170L
(lp152
F12952288.100067038
aF4860604.772132008
asL171L
(lp153
F12952242.628889602
aF4860603.889970232
asL172L
(lp154
F12952518.335108742
aF4860279.580131726
asL173L
(lp155
F12952518.640372034
aF4860313.362608987
asL174L
(lp156
F12952518.335108742
aF4860260.145029219
asL175L
(lp157
F12952458.198240096
aF4860277.646803751
asL176L
(lp158
F12952457.180683367
aF4860257.499426438
asL180L
(lp159
F12952336.649108434
aF4860185.736486662
asL181L
(lp160
F12952337.671731954
aF4860156.932601243
asL182L
(lp161
F12952306.993026346
aF4860154.8873542035
asL183L
(lp162
F12952236.091118542
aF4860112.789347418
asL184L
(lp163
F12952226.983130123
aF4860112.974284343
asL185L
(lp164
F12952229.369230866
aF4860040.0271294955
asL186L
(lp165
F12952041.55931059
aF4860022.356405639
asL187L
(lp166
F12952124.221388882
aF4860000.881311714
asL188L
(lp167
F12952146.037367716
aF4860001.73349278
asL189L
(lp168
F12951999.29086135
aF4859949.750135703
asL190L
(lp169
F12951986.132360173
aF4860535.365971868
asL191L
(lp170
F12951986.012861103
aF4860544.328949237
asL192L
(lp171
F12951986.490879267
aF4860581.017406917
asL193L
(lp172
F12951985.295822913
aF4860601.213980767
asL194L
(lp173
F12952025.353278168
aF4860503.804007871
asL195L
(lp174
F12952036.08525066
aF4860505.578586853
asL196L
(lp175
F12951986.988575814
aF4860510.310794892
asL197L
(lp176
F12951935.988168005
aF4860498.638894121
asL198L
(lp177
F12951925.591114257
aF4860499.355932311
asL199L
(lp178
F12952449.998262243
aF4860389.565478611
asL200L
(lp179
F12952451.667158635
aF4860366.585955077
asL201L
(lp180
F12952479.8794738
aF4860512.758679848
asL202L
(lp181
F12952462.29301896
aF4860511.051266458
asL203L
(lp182
F12952334.378781008
aF4859959.562044775
asL204L
(lp183
F12952332.500604395
aF4859979.197408189
asL205L
(lp184
F12952397.783086829
aF4859874.889021195
asL206L
(lp185
F12952222.275023926
aF4860270.701969793
asL207L
(lp186
F12952220.585503874
aF4860249.945378478
asL209L
(lp187
F12952195.243145019
aF4860348.901259595
asL210L
(lp188
F12952126.118015273
aF4860596.959471028
asL213L
(lp189
F12952530.725081103
aF4860565.734729734
asL214L
(lp190
F12952535.227204105
aF4860469.796634061
asL215L
(lp191
F12952537.700196622
aF4860405.362086302
asL216L
(lp192
F12952138.885500489
aF4860219.030299804
asL217L
(lp193
F12952120.400110234
aF4860219.379091597
asL218L
(lp194
F12952038.610909496
aF4860193.743677142
asL219L
(lp195
F12951944.963170977
aF4860211.182723951
asL220L
(lp196
F12951955.601017311
aF4860213.101030914
asL221L
(lp197
F12951933.279013129
aF4860211.531515744
asL222L
(lp198
F12951982.71955063
aF4860338.943771036
asL223L
(lp199
F12951983.70603764
aF4860272.354881814
asL224L
(lp200
F12951984.445914187
aF4860253.857968141
asL225L
(lp201
F12951985.92566728
aF4860413.917924028
asL226L
(lp202
F12952082.109663537
aF4860413.9179127375
asL227L
(lp203
F12952080.629910443
aF4860341.163400676
asL228L
(lp204
F12952083.096150551
aF4860278.143120543
asL229L
(lp205
F12952083.342806172
aF4860264.332099194
asL230L
(lp206
F12952140.213270832
aF4860238.516840317
asL231L
(lp207
F12952154.4261133
aF4860239.475985816
asL232L
(lp208
F12952302.81570343
aF4860210.5213155355
asL233L
(lp209
F12952139.767198823
aF4860205.391183957
asL234L
(lp210
F12952220.510767387
aF4860184.424628498
asL235L
(lp211
F12952220.510767387
aF4860198.030579921
asL236L
(lp212
F12952282.072182965
aF4860210.744350531
asL237L
(lp213
F12952297.591067422
aF4860008.139615504
asL238L
(lp214
F12952329.12312944
aF4860379.29838675
asL239L
(lp215
F12952314.73573869
aF4860393.206197809
asL242L
(lp216
F12952286.120836597
aF4860441.16416698
asL245L
(lp217
F12952296.831410686
aF4860442.602906056
asL246L
(lp218
F12952299.389188556
aF4860392.566753342
asL247L
(lp219
F12952129.524282435
aF4860645.36450711
asL248L
(lp220
F12952300.785328383
aF4859823.177592102
asL249L
(lp221
F12952304.821783913
aF4860317.389576085
asL251L
(lp222
F12952311.254465207
aF4860317.825692947
asL253L
(lp223
F12952368.436625838
aF4860220.725078112
asL254L
(lp224
F12952307.655156774
aF4860221.557700977
asL255L
(lp225
F12952377.179165909
aF4860221.002621185
asL256L
(lp226
F12952209.696244566
aF4860568.125495246
asL257L
(lp227
F12952213.35014425
aF4860526.661787123
asL258L
(lp228
F12952394.963996124
aF4859775.2414597515
asL259L
(lp229
F12952135.081784341
aF4860348.483929049
asL260L
(lp230
F12952177.401217498
aF4860349.8319026325
asL261L
(lp231
F12952512.045660462
aF4859893.488736359
asL262L
(lp232
F12952511.90019187
aF4859886.069385258
asL263L
(lp233
F12952405.801977122
aF4859998.0710224155
asL264L
(lp234
F12952374.324336264
aF4859998.276746073
asL265L
(lp235
F12952210.495667562
aF4860415.276820545
asL266L
(lp236
F12952444.584317327
aF4860168.383531919
asL267L
(lp237
F12952373.103481062
aF4860086.177979392
asL268L
(lp238
F12952401.965018524
aF4860088.360767073
asL269L
(lp239
F12952123.356869424
aF4860646.738746461
asL271L
(lp240
F12952016.771260936
aF4860642.946098835
asL272L
(lp241
F12952016.160724847
aF4860649.051515619
asL273L
(lp242
F12952128.582062794
aF4860494.944182492
asL274L
(lp243
F12944620.766342493
aF4888993.265657342
asL275L
(lp244
F12944552.07504011
aF4888901.925808401
asL276L
(lp245
F12944626.346263098
aF4888928.627277608
asL277L
(lp246
F12944656.900081113
aF4888832.731471219
asL278L
(lp247
F12944714.02242199
aF4888851.827609379
asL279L
(lp248
F12944708.127538865
aF4888869.346238357
asL280L
(lp249
F12944721.494821895
aF4888830.406729649
asL281L
(lp250
F12944663.044059435
aF4888810.397308303
asL282L
(lp251
F12944519.053339485
aF4888650.487722033
asL283L
(lp252
F12944517.75296034
aF4888659.734867031
asL284L
(lp253
F12944524.254856065
aF4888675.628385507
asL285L
(lp254
F12944535.524808656
aF4888689.788071737
asL286L
(lp255
F12944556.33087498
aF4888697.445862241
asL287L
(lp256
F12944577.570401018
aF4888705.681596827
asL288L
(lp257
F12944565.000069281
aF4888669.559949496
asL289L
(lp258
F12944574.058978373
aF4888613.386761
asL290L
(lp259
F12944583.771021713
aF4888631.262555209
asL291L
(lp260
F12944543.656060096
aF4888580.168761993
asL292L
(lp261
F12944542.248526175
aF4888568.063887791
asL293L
(lp262
F12944537.322118789
aF4888558.774107207
asL294L
(lp263
F12944528.595372392
aF4888552.1586616915
asL295L
(lp264
F12944528.032338204
aF4888542.446618353
asL296L
(lp265
F12944586.586115329
aF4888549.6250851685
asL297L
(lp266
F12944575.670738515
aF4888461.179680116
asL298L
(lp267
F12944624.442001052
aF4888478.904921086
asL299L
(lp268
F12944636.04397696
aF4888502.968285081
asL300L
(lp269
F12944575.385643126
aF4888461.4149558395
asL301L
(lp270
F12944624.35764806
aF4888478.277476046
asL302L
(lp271
F12944635.969559131
aF4888504.227592897
asL303L
(lp272
F12944792.235650748
aF4888988.020288921
asL304L
(lp273
F12944798.016300034
aF4888958.7316717515
asL305L
(lp274
F12944793.199104056
aF4888976.4589903485
asL306L
(lp275
F12944496.202466715
aF4888853.003284436
asL307L
(lp276
F12944464.558777709
aF4888850.521426475
asL308L
(lp277
F12944451.942679029
aF4888884.233327292
asL309L
(lp278
F12944558.869380236
aF4888875.340006087
asL310L
(lp279
F12944062.50549028
aF4888606.894967533
asL311L
(lp280
F12944043.39623321
aF4888666.611395881
asL312L
(lp281
F12944011.94553235
aF4888651.881367854
asL313L
(lp282
F12952328.679880695
aF4860364.200977101
assVcntVertex
p283
L316L
sVedge
p284
(dp285
(L33L
L34L
tp286
(NL1L
tp287
s(L33L
L114L
tp288
(NL1L
tp289
s(L114L
L115L
tp290
(NL1L
tp291
s(L114L
L49L
tp292
(NL1L
tp293
s(L14L
L152L
tp294
(NL1L
tp295
s(L14L
L48L
tp296
(NL1L
tp297
s(L27L
L48L
tp298
(NL1L
tp299
s(L64L
L192L
tp300
(NL1L
tp301
s(L193L
L192L
tp302
(NL1L
tp303
s(L63L
L192L
tp304
(NL1L
tp305
s(L63L
L271L
tp306
(NL1L
tp307
s(L272L
L269L
tp308
(NL1L
tp309
s(L269L
L210L
tp310
(NL1L
tp311
s(L247L
L269L
tp312
(NL1L
tp313
s(L142L
L61L
tp314
(NL1L
tp315
s(L167L
L166L
tp316
(NL1L
tp317
s(L62L
L190L
tp318
(NL1L
tp319
s(L65L
L190L
tp320
(NL1L
tp321
s(L191L
L190L
tp322
(NL1L
tp323
s(L63L
L62L
tp324
(NL1L
tp325
s(L62L
L166L
tp326
(NL1L
tp327
s(L61L
L67L
tp328
(NL1L
tp329
s(L61L
L273L
tp330
(NL1L
tp331
s(L67L
L273L
tp332
(NL1L
tp333
s(L165L
L195L
tp334
(NL1L
tp335
s(L194L
L195L
tp336
(NL1L
tp337
s(L66L
L194L
tp338
(NL1L
tp339
s(L28L
L27L
tp340
(NL1L
tp341
s(L11L
L28L
tp342
(NL1L
tp343
s(L11L
L30L
tp344
(NL1L
tp345
s(L31L
L30L
tp346
(NL1L
tp347
s(L32L
L31L
tp348
(NL1L
tp349
s(L37L
L32L
tp350
(NL1L
tp351
s(L31L
L274L
tp352
(NL1L
tp353
s(L30L
L274L
tp354
(NL1L
tp355
s(L29L
L275L
tp356
(NL1L
tp357
s(L29L
L28L
tp358
(NL1L
tp359
s(L29L
L276L
tp360
(NL1L
tp361
s(L275L
L276L
tp362
(NL1L
tp363
s(L277L
L278L
tp364
(NL1L
tp365
s(L278L
L280L
tp366
(NL1L
tp367
s(L281L
L10L
tp368
(NL1L
tp369
s(L281L
L280L
tp370
(NL1L
tp371
s(L10L
L280L
tp372
(NL1L
tp373
s(L27L
L281L
tp374
(NL1L
tp375
s(L276L
L277L
tp376
(NL1L
tp377
s(L17L
L275L
tp378
(NL1L
tp379
s(L32L
L17L
tp380
(NL1L
tp381
s(L2L
L17L
tp382
(NL1L
tp383
s(L38L
L2L
tp384
(NL1L
tp385
s(L37L
L38L
tp386
(NL1L
tp387
s(L41L
L42L
tp388
(NL1L
tp389
s(L43L
L42L
tp390
(NL1L
tp391
s(L44L
L43L
tp392
(NL1L
tp393
s(L44L
L26L
tp394
(NL1L
tp395
s(L44L
L282L
tp396
(NL1L
tp397
s(L283L
L282L
tp398
(NL1L
tp399
s(L283L
L284L
tp400
(NL1L
tp401
s(L285L
L284L
tp402
(NL1L
tp403
s(L286L
L285L
tp404
(NL1L
tp405
s(L286L
L287L
tp406
(NL1L
tp407
s(L286L
L288L
tp408
(NL1L
tp409
s(L26L
L290L
tp410
(NL1L
tp411
s(L289L
L290L
tp412
(NL1L
tp413
s(L19L
L26L
tp414
(NL1L
tp415
s(L291L
L292L
tp416
(NL1L
tp417
s(L291L
L293L
tp418
(NL1L
tp419
s(L292L
L294L
tp420
(NL1L
tp421
s(L293L
L295L
tp422
(NL1L
tp423
s(L26L
L291L
tp424
(NL1L
tp425
s(L295L
L293L
tp426
(NL1L
tp427
s(L294L
L295L
tp428
(NL1L
tp429
s(L25L
L296L
tp430
(NL1L
tp431
s(L25L
L24L
tp432
(NL1L
tp433
s(L295L
L25L
tp434
(NL1L
tp435
s(L24L
L300L
tp436
(NL1L
tp437
s(L301L
L300L
tp438
(NL1L
tp439
s(L302L
L301L
tp440
(NL1L
tp441
s(L302L
L23L
tp442
(NL1L
tp443
s(L22L
L23L
tp444
(NL1L
tp445
s(L21L
L22L
tp446
(NL1L
tp447
s(L289L
L26L
tp448
(NL1L
tp449
s(L290L
L19L
tp450
(NL1L
tp451
s(L51L
L36L
tp452
(NL1L
tp453
s(L35L
L36L
tp454
(NL1L
tp455
s(L28L
L36L
tp456
(NL1L
tp457
s(L28L
L305L
tp458
(NL1L
tp459
s(L304L
L305L
tp460
(NL1L
tp461
s(L303L
L305L
tp462
(NL1L
tp463
s(L36L
L305L
tp464
(NL1L
tp465
s(L35L
L115L
tp466
(NL1L
tp467
s(L51L
L50L
tp468
(NL1L
tp469
s(L115L
L50L
tp470
(NL1L
tp471
s(L50L
L27L
tp472
(NL1L
tp473
s(L48L
L49L
tp474
(NL1L
tp475
s(L48L
L47L
tp476
(NL1L
tp477
s(L46L
L47L
tp478
(NL1L
tp479
s(L281L
L15L
tp480
(NL1L
tp481
s(L39L
L39L
tp482
(NL1L
tp483
s(L40L
L307L
tp484
(NL1L
tp485
s(L308L
L307L
tp486
(NL1L
tp487
s(L306L
L40L
tp488
(NL1L
tp489
s(L306L
L309L
tp490
(NL1L
tp491
s(L275L
L309L
tp492
(NL1L
tp493
s(L15L
L309L
tp494
(NL1L
tp495
s(L46L
L15L
tp496
(NL1L
tp497
s(L40L
L39L
tp498
(NL1L
tp499
s(L15L
L46L
tp500
(NL1L
tp501
s(L18L
L46L
tp502
(NL1L
tp503
s(L16L
L15L
tp504
(NL1L
tp505
s(L39L
L16L
tp506
(NL1L
tp507
s(L2L
L39L
tp508
(NL1L
tp509
s(L45L
L41L
tp510
(NL1L
tp511
s(L46L
L45L
tp512
(NL1L
tp513
s(L18L
L5L
tp514
(NL1L
tp515
s(L19L
L5L
tp516
(NL1L
tp517
s(L20L
L19L
tp518
(NL1L
tp519
s(L7L
L21L
tp520
(NL1L
tp521
s(L7L
L20L
tp522
(NL1L
tp523
s(L45L
L58L
tp524
(NL1L
tp525
s(L16L
L53L
tp526
(NL1L
tp527
s(L310L
L311L
tp528
(NL1L
tp529
s(L312L
L310L
tp530
(NL1L
tp531
s(L58L
L55L
tp532
(NL1L
tp533
s(L53L
L310L
tp534
(NL1L
tp535
s(L57L
L310L
tp536
(NL1L
tp537
s(L61L
L166L
tp538
(NL1L
tp539
s(L142L
L256L
tp540
(NL1L
tp541
s(L257L
L133L
tp542
(NL1L
tp543
s(L256L
L132L
tp544
(NL1L
tp545
s(L133L
L170L
tp546
(NL1L
tp547
s(L132L
L171L
tp548
(NL1L
tp549
s(L170L
L62L
tp550
(NL1L
tp551
s(L194L
L190L
tp552
(NL1L
tp553
s(L196L
L198L
tp554
(NL1L
tp555
s(L70L
L197L
tp556
(NL1L
tp557
s(L70L
L66L
tp558
(NL1L
tp559
s(L198L
L197L
tp560
(NL1L
tp561
s(L196L
L190L
tp562
(NL1L
tp563
s(L194L
L62L
tp564
(NL1L
tp565
s(L165L
L273L
tp566
(NL1L
tp567
s(L66L
L67L
tp568
(NL1L
tp569
s(L164L
L67L
tp570
(NL1L
tp571
s(L160L
L164L
tp572
(NL1L
tp573
s(L162L
L164L
tp574
(NL1L
tp575
s(L163L
L162L
tp576
(NL1L
tp577
s(L163L
L158L
tp578
(NL1L
tp579
s(L162L
L146L
tp580
(NL1L
tp581
s(L161L
L134L
tp582
(NL1L
tp583
s(L159L
L163L
tp584
(NL1L
tp585
s(L245L
L133L
tp586
(NL1L
tp587
s(L134L
L168L
tp588
(NL1L
tp589
s(L169L
L130L
tp590
(NL1L
tp591
s(L131L
L256L
tp592
(NL1L
tp593
s(L133L
L257L
tp594
(NL1L
tp595
s(L256L
L257L
tp596
(NL1L
tp597
s(L133L
L256L
tp598
(NL1L
tp599
s(L132L
L168L
tp600
(NL1L
tp601
s(L169L
L168L
tp602
(NL1L
tp603
s(L130L
L131L
tp604
(NL1L
tp605
s(L168L
L131L
tp606
(NL1L
tp607
s(L127L
L131L
tp608
(NL1L
tp609
s(L128L
L127L
tp610
(NL1L
tp611
s(L129L
L128L
tp612
(NL1L
tp613
s(L129L
L130L
tp614
(NL1L
tp615
s(L128L
L213L
tp616
(NL1L
tp617
s(L126L
L213L
tp618
(NL1L
tp619
s(L127L
L125L
tp620
(NL1L
tp621
s(L201L
L125L
tp622
(NL1L
tp623
s(L124L
L201L
tp624
(NL1L
tp625
s(L202L
L201L
tp626
(NL1L
tp627
s(L123L
L124L
tp628
(NL1L
tp629
s(L126L
L123L
tp630
(NL1L
tp631
s(L214L
L121L
tp632
(NL1L
tp633
s(L123L
L214L
tp634
(NL1L
tp635
s(L125L
L126L
tp636
(NL1L
tp637
s(L121L
L120L
tp638
(NL1L
tp639
s(L124L
L120L
tp640
(NL1L
tp641
s(L119L
L120L
tp642
(NL1L
tp643
s(L199L
L200L
tp644
(NL1L
tp645
s(L122L
L200L
tp646
(NL1L
tp647
s(L119L
L200L
tp648
(NL1L
tp649
s(L119L
L118L
tp650
(NL1L
tp651
s(L172L
L118L
tp652
(NL1L
tp653
s(L117L
L172L
tp654
(NL1L
tp655
s(L174L
L172L
tp656
(NL1L
tp657
s(L173L
L172L
tp658
(NL1L
tp659
s(L245L
L242L
tp660
(NL1L
tp661
s(L135L
L245L
tp662
(NL1L
tp663
s(L246L
L135L
tp664
(NL1L
tp665
s(L246L
L239L
tp666
(NL1L
tp667
s(L122L
L246L
tp668
(NL1L
tp669
s(L136L
L313L
tp670
(NL1L
tp671
s(L136L
L238L
tp672
(NL1L
tp673
s(L313L
L239L
tp674
(NL1L
tp675
s(L246L
L136L
tp676
(NL1L
tp677
s(L249L
L251L
tp678
(NL1L
tp679
s(L314L
L122L
tp680
(NL1L
tp681
s(L249L
L315L
tp682
(NL1L
tp683
s(L249L
L137L
tp684
(NL1L
tp685
s(L138L
L137L
tp686
(NL1L
tp687
s(L279L
L278L
tp688
(NL1L
tp689
s(L274L
L29L
tp690
(NL1L
tp691
ssb.