ccopy_reg
_reconstructor
p0
(capp
Map
p1
c__builtin__
object
p2
Ntp3
Rp4
(dp5
Vvertex
p6
(dp7
L2L
(lp8
F12944371.562791632
aF4888860.371305252
asL5L
(lp9
F12944624.760447828
aF4888685.521610339
asL7L
(lp10
F12944675.39993533
aF4888544.113115301
asL10L
(lp11
F12944675.400008224
aF4888814.509059123
asL11L
(lp12
F12944727.950465169
aF4889024.710896019
asL14L
(lp13
F12944825.407719972
aF4888766.735916444
asL15L
(lp14
F12944590.34599883
aF4888786.40516572
asL16L
(lp15
F12944420.609099852
aF4888729.82619174
asL17L
(lp16
F12944546.592885152
aF4888910.020966666
asL18L
(lp17
F12944607.095038295
aF4888737.989087326
asL19L
(lp18
F12944638.094232995
aF4888648.596016617
asL20L
(lp19
F12944652.60565286
aF4888607.558111539
asL21L
(lp20
F12944707.785553483
aF4888450.753915221
asL22L
(lp21
F12944663.282343585
aF4888435.530771095
asL23L
(lp22
F12944641.973776693
aF4888488.174592781
asL24L
(lp23
F12944556.752583511
aF4888464.759180864
asL25L
(lp24
F12944532.817716496
aF4888531.174696183
asL26L
(lp25
F12944536.604307018
aF4888599.784209999
asL27L
(lp26
F12944791.90138274
aF4888855.2709483355
asL28L
(lp27
F12944751.324935135
aF4888969.358929296
asL29L
(lp28
F12944640.283359924
aF4888933.083631329
asL30L
(lp29
F12944655.39111085
aF4889005.097581402
asL31L
(lp30
F12944610.100090196
aF4888989.836530567
asL32L
(lp31
F12944528.879254628
aF4888963.109411287
asL33L
(lp32
F12945032.897132503
aF4888843.8645124165
asL34L
(lp33
F12945066.346495807
aF4888770.461754267
asL35L
(lp34
F12944948.661431635
aF4889032.917200693
asL36L
(lp35
F12944890.179290926
aF4889011.39251788
asL37L
(lp36
F12944513.311064873
aF4889005.67330326
asL38L
(lp37
F12944340.04767804
aF4888947.690970872
asL39L
(lp38
F12944398.544837574
aF4888789.525213054
asL40L
(lp39
F12944503.218643887
aF4888828.186475459
asL41L
(lp40
F12944452.671914568
aF4888643.349463326
asL42L
(lp41
F12944482.659206282
aF4888654.249603221
asL43L
(lp42
F12944491.659428569
aF4888632.1619808525
asL44L
(lp43
F12944521.524552649
aF4888642.172572813
asL45L
(lp44
F12944424.757550243
aF4888717.902155447
asL46L
(lp45
F12944594.422543386
aF4888776.4238766935
asL47L
(lp46
F12944678.60846394
aF4888803.946152261
asL48L
(lp47
F12944795.57435558
aF4888844.903646279
asL49L
(lp48
F12944908.643466126
aF4888882.227431301
asL50L
(lp49
F12944927.671265503
aF4888903.816683464
asL51L
(lp50
F12944908.277524358
aF4888956.87500133
asL53L
(lp51
F12944193.572907712
aF4888652.251645866
asL55L
(lp52
F12943999.279491302
aF4888572.502910805
asL57L
(lp53
F12943995.635816704
aF4888582.758361153
asL58L
(lp54
F12944198.109354954
aF4888640.941726079
asL61L
(lp55
F12952126.9726608
aF4860538.741998155
asL62L
(lp56
F12952021.998718059
aF4860534.562714898
asL63L
(lp57
F12952019.048637966
aF4860579.797395101
asL64L
(lp58
F12951946.786763577
aF4860578.722386311
asL65L
(lp59
F12951940.579295151
aF4860532.16642385
asL66L
(lp60
F12952025.710184405
aF4860474.525674595
asL67L
(lp61
F12952130.350245645
aF4860478.516226256
asL68L
(lp62
F12952133.477359671
aF4860413.346917299
asL69L
(lp63
F12952028.656367231
aF4860412.211674656
asL70L
(lp64
F12951940.645425558
aF4860473.116664416
asL71L
(lp65
F12951941.345429566
aF4860408.01530372
asL72L
(lp66
F12952030.244146096
aF4860337.735278477
asL74L
(lp67
F12951942.438768413
aF4860337.038407657
asL75L
(lp68
F12951944.180938816
aF4860250.626758322
asL76L
(lp69
F12952031.986316498
aF4860259.337610338
asL77L
(lp70
F12952138.955595199
aF4860264.564121547
asL78L
(lp71
F12952140.0895532
aF4860180.627943909
asL79L
(lp72
F12951948.47656837
aF4860173.951532577
asL80L
(lp73
F12952038.941936813
aF4860176.622107297
asL81L
(lp74
F12952040.277224172
aF4860103.181582654
asL82L
(lp75
F12951953.150035925
aF4860097.840445949
asL83L
(lp76
F12952144.42925622
aF4860108.188891153
asL84L
(lp77
F12952145.43067717
aF4860034.748353776
asL85L
(lp78
F12952041.612486064
aF4860033.079250942
asL86L
(lp79
F12951954.819138758
aF4860031.076332637
asL87L
(lp80
F12952148.805337546
aF4859953.884411585
asL88L
(lp81
F12951956.01904321
aF4859949.450252507
asL89L
(lp82
F12952151.594639605
aF4859896.381284998
asL90L
(lp83
F12952045.626669483
aF4859897.721470989
asL91L
(lp84
F12951954.615891773
aF4859895.177662566
asL92L
(lp85
F12951955.737459783
aF4859859.625746668
asL93L
(lp86
F12952047.749555063
aF4859861.811501236
asL94L
(lp87
F12952048.985613476
aF4859816.954790284
asL95L
(lp88
F12951956.98571854
aF4859814.533679496
asL96L
(lp89
F12951958.551675817
aF4859741.741697602
asL97L
(lp90
F12952051.069167567
aF4859744.745821938
asL98L
(lp91
F12952153.127634343
aF4859844.130384031
asL99L
(lp92
F12952155.753582602
aF4859771.210028624
asL100L
(lp93
F12952156.872359697
aF4859717.882184908
asL101L
(lp94
F12952226.608772898
aF4859715.644659172
asL102L
(lp95
F12952305.295260595
aF4859716.763436265
asL103L
(lp96
F12952302.311873978
aF4859774.939247669
asL104L
(lp97
F12952298.9555996
aF4859846.167339954
asL105L
(lp98
F12952298.209767172
aF4859895.020103745
asL106L
(lp99
F12952299.768151036
aF4859960.320615667
asL107L
(lp100
F12952296.982694343
aF4860038.477401245
asL108L
(lp101
F12952305.502925107
aF4860039.95205681
asL109L
(lp102
F12952373.82866942
aF4860041.099012875
asL110L
(lp103
F12952375.139479922
aF4859962.450679609
asL111L
(lp104
F12952306.026345303
aF4860186.404560734
asL112L
(lp105
F12952371.865739902
aF4860167.947252903
asL113L
(lp106
F12952371.125906272
aF4860188.385081073
asL114L
(lp107
F12945001.92307647
aF4888913.935605337
asL115L
(lp108
F12945000.588561328
aF4888926.809713445
asL117L
(lp109
F12952546.004256867
aF4860280.788273857
asL118L
(lp110
F12952492.619599849
aF4860278.808906323
asL119L
(lp111
F12952488.053407313
aF4860368.1448217435
asL120L
(lp112
F12952484.986727813
aF4860440.640771146
asL121L
(lp113
F12952538.224031476
aF4860440.518100821
asL122L
(lp114
F12952417.274775071
aF4860365.5688235415
asL123L
(lp115
F12952536.48284853
aF4860487.313370437
asL124L
(lp116
F12952481.49074231
aF4860487.313370437
asL125L
(lp117
F12952478.616641814
aF4860535.7856718
asL126L
(lp118
F12952534.566143103
aF4860538.620588597
asL127L
(lp119
F12952474.741320524
aF4860592.221490906
asL128L
(lp120
F12952531.552446444
aF4860595.114649279
asL129L
(lp121
F12952530.06201012
aF4860624.922946327
asL130L
(lp122
F12952373.56844359
aF4860622.468146621
asL131L
(lp123
F12952374.094472386
aF4860592.221490906
asL132L
(lp124
F12952290.067658378
aF4860588.876087123
asL133L
(lp125
F12952288.84025251
aF4860570.114390757
asL134L
(lp126
F12952294.275904799
aF4860487.089507252
asL135L
(lp127
F12952297.352143947
aF4860418.378043438
asL136L
(lp128
F12952302.29901947
aF4860363.127872759
asL137L
(lp129
F12952306.173080368
aF4860274.07586649
asL138L
(lp130
F12952369.952980224
aF4860275.580568596
asL139L
(lp131
F12952497.208335578
aF4860169.059346604
asL140L
(lp132
F12952498.51853821
aF4860145.809176651
asL141L
(lp133
F12952550.940967573
aF4860147.3729532445
asL142L
(lp134
F12952127.048304934
aF4860564.712141673
asL143L
(lp135
F12952399.33138352
aF4859894.407518704
asL144L
(lp136
F12952399.675424991
aF4859846.723952954
asL145L
(lp137
F12952534.077577213
aF4859845.956100389
asL146L
(lp138
F12952193.516462075
aF4860473.023706505
asL152L
(lp139
F12944871.110631991
aF4888637.952647356
asL158L
(lp140
F12952213.088892018
aF4860473.3679623315
asL159L
(lp141
F12952218.0610392
aF4860505.045418878
asL160L
(lp142
F12952152.94183192
aF4860490.610124452
asL161L
(lp143
F12952164.089067476
aF4860470.9620799245
asL162L
(lp144
F12952193.51859375
aF4860481.341386356
asL163L
(lp145
F12952212.23196714
aF4860482.362115814
asL164L
(lp146
F12952152.802843677
aF4860481.795057737
asL165L
(lp147
F12952101.199271187
aF4860492.796246081
asL166L
(lp148
F12952083.73344218
aF4860540.090054665
asL167L
(lp149
F12952084.18711356
aF4860558.236349211
asL168L
(lp150
F12952322.744773656
aF4860586.728013978
asL169L
(lp151
F12952323.626935432
aF4860573.174873988
asL170L
(lp152
F12952288.100067038
aF4860604.772132008
asL171L
(lp153
F12952242.628889602
aF4860603.889970232
asL172L
(lp154
F12952518.335108742
aF4860279.580131726
asL173L
(lp155
F12952518.640372034
aF4860313.362608987
asL174L
(lp156
F12952518.335108742
aF4860260.145029219
asL175L
(lp157
F12952458.198240096
aF4860277.646803751
asL176L
(lp158
F12952457.180683367
aF4860257.499426438
asL180L
(lp159
F12952336.649108434
aF4860185.736486662
asL181L
(lp160
F12952337.671731954
aF4860156.932601243
asL182L
(lp161
F12952306.993026346
aF4860154.8873542035
asL183L
(lp162
F12952236.091118542
aF4860112.789347418
asL184L
(lp163
F12952226.983130123
aF4860112.974284343
asL185L
(lp164
F12952229.369230866
aF4860040.0271294955
asL186L
(lp165
F12952041.55931059
aF4860022.356405639
asL187L
(lp166
F12952124.221388882
aF4860000.881311714
asL188L
(lp167
F12952146.037367716
aF4860001.73349278
asL189L
(lp168
F12951999.29086135
aF4859949.750135703
asL190L
(lp169
F12951986.132360173
aF4860535.365971868
asL191L
(lp170
F12951986.012861103
aF4860544.328949237
asL192L
(lp171
F12951986.490879267
aF4860581.017406917
asL193L
(lp172
F12951985.295822913
aF4860601.213980767
asL194L
(lp173
F12952025.353278168
aF4860503.804007871
asL195L
(lp174
F12952036.08525066
aF4860505.578586853
asL196L
(lp175
F12951986.988575814
aF4860510.310794892
asL197L
(lp176
F12951935.988168005
aF4860498.638894121
asL198L
(lp177
F12951925.591114257
aF4860499.355932311
asL199L
(lp178
F12952449.998262243
aF4860389.565478611
asL200L
(lp179
F12952451.667158635
aF4860366.585955077
asL201L
(lp180
F12952479.8794738
aF4860512.758679848
asL202L
(lp181
F12952462.29301896
aF4860511.051266458
asL203L
(lp182
F12952334.378781008
aF4859959.562044775
asL204L
(lp183
F12952332.500604395
aF4859979.197408189
asL205L
(lp184
F12952397.783086829
aF4859874.889021195
asL206L
(lp185
F12952222.275023926
aF4860270.701969793
asL207L
(lp186
F12952220.585503874
aF4860249.945378478
asL209L
(lp187
F12952195.243145019
aF4860348.901259595
asL210L
(lp188
F12952126.118015273
aF4860596.959471028
asL213L
(lp189
F12952530.725081103
aF4860565.734729734
asL214L
(lp190
F12952535.227204105
aF4860469.796634061
asL215L
(lp191
F12952537.700196622
aF4860405.362086302
asL216L
(lp192
F12952138.885500489
aF4860219.030299804
asL217L
(lp193
F12952120.400110234
aF4860219.379091597
asL218L
(lp194
F12952038.610909496
aF4860193.743677142
asL219L
(lp195
F12951944.963170977
aF4860211.182723951
asL220L
(lp196
F12951955.601017311
aF4860213.101030914
asL221L
(lp197
F12951933.279013129
aF4860211.531515744
asL222L
(lp198
F12951982.71955063
aF4860338.943771036
asL223L
(lp199
F12951983.70603764
aF4860272.354881814
asL224L
(lp200
F12951984.445914187
aF4860253.857968141
asL225L
(lp201
F12951985.92566728
aF4860413.917924028
asL226L
(lp202
F12952082.109663537
aF4860413.9179127375
asL227L
(lp203
F12952080.629910443
aF4860341.163400676
asL228L
(lp204
F12952083.096150551
aF4860278.143120543
asL229L
(lp205
F12952083.342806172
aF4860264.332099194
asL230L
(lp206
F12952140.213270832
aF4860238.516840317
asL231L
(lp207
F12952154.4261133
aF4860239.475985816
asL232L
(lp208
F12952302.81570343
aF4860210.5213155355
asL233L
(lp209
F12952139.767198823
aF4860205.391183957
asL234L
(lp210
F12952220.510767387
aF4860184.424628498
asL235L
(lp211
F12952220.510767387
aF4860198.030579921
asL236L
(lp212
F12952282.072182965
aF4860210.744350531
asL237L
(lp213
F12952297.591067422
aF4860008.139615504
asL238L
(lp214
F12952329.12312944
aF4860379.29838675
asL239L
(lp215
F12952314.73573869
aF4860393.206197809
asL242L
(lp216
F12952286.120836597
aF4860441.16416698
asL245L
(lp217
F12952296.831410686
aF4860442.602906056
asL246L
(lp218
F12952299.389188556
aF4860392.566753342
asL247L
(lp219
F12952129.524282435
aF4860645.36450711
asL248L
(lp220
F12952300.785328383
aF4859823.177592102
asL249L
(lp221
F12952304.821783913
aF4860317.389576085
asL251L
(lp222
F12952311.254465207
aF4860317.825692947
asL253L
(lp223
F12952368.436625838
aF4860220.725078112
asL254L
(lp224
F12952307.655156774
aF4860221.557700977
asL255L
(lp225
F12952377.179165909
aF4860221.002621185
asL256L
(lp226
F12952209.696244566
aF4860568.125495246
asL257L
(lp227
F12952213.35014425
aF4860526.661787123
asL258L
(lp228
F12952394.963996124
aF4859775.2414597515
asL259L
(lp229
F12952135.081784341
aF4860348.483929049
asL260L
(lp230
F12952177.401217498
aF4860349.8319026325
asL261L
(lp231
F12952512.045660462
aF4859893.488736359
asL262L
(lp232
F12952511.90019187
aF4859886.069385258
asL263L
(lp233
F12952405.801977122
aF4859998.0710224155
asL264L
(lp234
F12952374.324336264
aF4859998.276746073
asL265L
(lp235
F12952210.495667562
aF4860415.276820545
asL266L
(lp236
F12952444.584317327
aF4860168.383531919
asL267L
(lp237
F12952373.103481062
aF4860086.177979392
asL268L
(lp238
F12952401.965018524
aF4860088.360767073
asL269L
(lp239
F12952123.356869424
aF4860646.738746461
asL271L
(lp240
F12952016.771260936
aF4860642.946098835
asL272L
(lp241
F12952016.160724847
aF4860649.051515619
asL273L
(lp242
F12952128.582062794
aF4860494.944182492
asL274L
(lp243
F12944620.766342493
aF4888993.265657342
asL275L
(lp244
F12944552.07504011
aF4888901.925808401
asL276L
(lp245
F12944626.346263098
aF4888928.627277608
asL277L
(lp246
F12944656.900081113
aF4888832.731471219
asL278L
(lp247
F12944714.02242199
aF4888851.827609379
asL279L
(lp248
F12944708.127538865
aF4888869.346238357
asL280L
(lp249
F12944721.494821895
aF4888830.406729649
asL281L
(lp250
F12944663.044059435
aF4888810.397308303
asL282L
(lp251
F12944519.053339485
aF4888650.487722033
asL283L
(lp252
F12944517.75296034
aF4888659.734867031
asL284L
(lp253
F12944524.254856065
aF4888675.628385507
asL285L
(lp254
F12944535.524808656
aF4888689.788071737
asL286L
(lp255
F12944556.33087498
aF4888697.445862241
asL287L
(lp256
F12944577.570401018
aF4888705.681596827
asL288L
(lp257
F12944565.000069281
aF4888669.559949496
asL289L
(lp258
F12944574.058978373
aF4888613.386761
asL290L
(lp259
F12944583.771021713
aF4888631.262555209
asL291L
(lp260
F12944543.656060096
aF4888580.168761993
asL292L
(lp261
F12944542.248526175
aF4888568.063887791
asL293L
(lp262
F12944537.322118789
aF4888558.774107207
asL294L
(lp263
F12944528.595372392
aF4888552.1586616915
asL295L
(lp264
F12944528.032338204
aF4888542.446618353
asL296L
(lp265
F12944586.586115329
aF4888549.6250851685
asL297L
(lp266
F12944575.670738515
aF4888461.179680116
asL298L
(lp267
F12944624.442001052
aF4888478.904921086
asL299L
(lp268
F12944636.04397696
aF4888502.968285081
asL300L
(lp269
F12944575.385643126
aF4888461.4149558395
asL301L
(lp270
F12944624.35764806
aF4888478.277476046
asL302L
(lp271
F12944635.969559131
aF4888504.227592897
asL303L
(lp272
F12944792.235650748
aF4888988.020288921
asL304L
(lp273
F12944798.016300034
aF4888958.7316717515
asL305L
(lp274
F12944793.199104056
aF4888976.4589903485
asL306L
(lp275
F12944496.202466715
aF4888853.003284436
asL307L
(lp276
F12944464.558777709
aF4888850.521426475
asL308L
(lp277
F12944451.942679029
aF4888884.233327292
asL309L
(lp278
F12944558.869380236
aF4888875.340006087
asL310L
(lp279
F12944062.50549028
aF4888606.894967533
asL311L
(lp280
F12944043.39623321
aF4888666.611395881
asL312L
(lp281
F12944011.94553235
aF4888651.881367854
asL313L
(lp282
F12952328.679880695
aF4860364.200977101
asL316L
(lp283
F12952052.507074598
aF4859717.179053957
asL317L
(lp284
F12952036.897281233
aF4860205.454300877
asL318L
(lp285
F12944810.772574758
aF4888893.572485414
asL319L
(lp286
F12944782.378543269
aF4888883.3506311895
asL324L
(lp287
F12944766.651902255
aF4888849.410336199
asL325L
(lp288
F12944767.667365614
aF4888846.791511948
asL327L
(lp289
F12951999.358071538
aF4859947.512070547
asL328L
(lp290
F12943993.923977124
aF4888571.362823221
asL329L
(lp291
F12944032.97225638
aF4888456.393701628
asL330L
(lp292
F12944179.475961959
aF4888077.817172091
asL331L
(lp293
F12944189.611145316
aF4888048.127095105
asL332L
(lp294
F12944300.444675718
aF4887762.002337518
asL333L
(lp295
F12944305.460242642
aF4887750.299379916
asL334L
(lp296
F12944454.697722737
aF4887465.733934047
asL335L
(lp297
F12944382.146782279
aF4887564.3038160065
asL336L
(lp298
F12944495.854543582
aF4887409.87508742
asL337L
(lp299
F12944551.912746174
aF4887346.2040468175
asL338L
(lp300
F12951917.274251906
aF4860097.036569815
asL339L
(lp301
F12951881.170428397
aF4860860.947328806
asL340L
(lp302
F12951849.668071559
aF4860861.191547998
asL341L
(lp303
F12951850.644892436
aF4860877.797437698
asL342L
(lp304
F12951778.840067578
aF4860959.748395843
asL343L
(lp305
F12951767.187397702
aF4860987.254593745
asL344L
(lp306
F12951764.224172922
aF4861026.110357963
asL345L
(lp307
F12951628.942019122
aF4861022.428647341
asL346L
(lp308
F12951310.842433514
aF4861011.782278016
asL347L
(lp309
F12950784.154788673
aF4861008.502246743
asL348L
(lp310
F12950786.819816692
aF4860959.096647977
asL349L
(lp311
F12951890.87535338
aF4860645.685130566
asL352L
(lp312
F12944887.261664506
aF4888827.336388388
asL353L
(lp313
F12944992.831195362
aF4888864.481230776
asL354L
(lp314
F12945018.24608242
aF4888791.7555524735
asL355L
(lp315
F12944908.76656894
aF4888756.565708855
asL356L
(lp316
F12944884.486786127
aF4888840.4417482065
asL357L
(lp317
F12944989.27433239
aF4888873.676600513
asL358L
(lp318
F12945021.727170272
aF4888782.574008351
asL359L
(lp319
F12944911.856664497
aF4888746.993157521
asL360L
(lp320
F12944930.731532225
aF4888751.509181777
asL361L
(lp321
F12945005.984303026
aF4888777.3628704585
asL362L
(lp322
F12944946.890127277
aF4888757.972595142
asL363L
(lp323
F12944899.626308078
aF4888845.055696073
asL364L
(lp324
F12944976.72572564
aF4888870.678560513
asL365L
(lp325
F12944955.950434431
aF4888864.676800033
asL366L
(lp326
F12944903.31970727
aF4888832.590526631
asL367L
(lp327
F12944961.028831905
aF4888853.134971584
asL368L
(lp328
F12944979.72660808
aF4888860.290914909
asL369L
(lp329
F12945002.348598886
aF4888787.57739568
asL370L
(lp330
F12944943.254423138
aF4888767.956287317
asL371L
(lp331
F12944927.326696355
aF4888761.954540045
asL372L
(lp332
F12944896.027178127
aF4888783.903459513
asL373L
(lp333
F12944889.184779162
aF4888811.570512009
asL374L
(lp334
F12944908.819481347
aF4888818.710378952
asL376L
(lp335
F12944904.247624082
aF4888764.553040843
asL377L
(lp336
F12944922.74298065
aF4888773.398631932
asL378L
(lp337
F12944911.752972236
aF4888849.256390127
asL379L
(lp338
F12944915.237612043
aF4888838.266402166
asL386L
(lp339
F12952097.794825904
aF4861027.934620491
asL387L
(lp340
F12951879.15403891
aF4860936.9518037215
asL388L
(lp341
F12944590.325683733
aF4888929.697838712
asL389L
(lp342
F12944623.227525918
aF4888910.947319969
asL390L
(lp343
F12944591.387017809
aF4888916.9616408665
asL391L
(lp344
F12944632.072111502
aF4888913.777584657
assVcntVertex
p345
L392L
sVedge
p346
(dp347
(L33L
L34L
tp348
(F80.66489204980644
F1.0
tp349
s(L33L
L114L
tp350
(F76.61168455410387
F1.0
tp351
s(L114L
L115L
tp352
(F12.943090443658608
F1.0
tp353
s(L114L
L49L
tp354
(F98.5215408247537
F1.0
tp355
s(L14L
L152L
tp356
(F136.65242977717133
F1.0
tp357
s(L14L
L48L
tp358
(F83.66733901881622
F1.0
tp359
s(L27L
L48L
tp360
(F10.9987127159091
F1.0
tp361
s(L64L
L192L
tp362
(F39.770390020230444
F1.0
tp363
s(L193L
L192L
tp364
(F20.231899440236564
F1.0
tp365
s(L63L
L192L
tp366
(F32.580608961234525
F1.0
tp367
s(L63L
L271L
tp368
(F63.189755732001736
F1.0
tp369
s(L269L
L210L
tp370
(F49.85579393659961
F1.0
tp371
s(L247L
L269L
tp372
(F6.318664182097606
F1.0
tp373
s(L142L
L61L
tp374
(F25.970253683816708
F1.0
tp375
s(L167L
L166L
tp376
(F18.151964727912993
F1.0
tp377
s(L62L
L190L
tp378
(F35.875351562266154
F1.0
tp379
s(L65L
L190L
tp380
(F45.665291419856665
F1.0
tp381
s(L191L
L190L
tp382
(F8.963773945762824
F1.0
tp383
s(L63L
L62L
tp384
(F45.33077614164288
F1.0
tp385
s(L62L
L166L
tp386
(F61.98167186526728
F1.0
tp387
s(L61L
L67L
tp388
(F60.320408487862295
F1.0
tp389
s(L61L
L273L
tp390
(F43.82737536757026
F1.0
tp391
s(L67L
L273L
tp392
(F16.52283924374137
F1.0
tp393
s(L165L
L195L
tp394
(F66.35679245364915
F1.0
tp395
s(L194L
L195L
tp396
(F10.87770031573521
F1.0
tp397
s(L66L
L194L
tp398
(F29.280508559662582
F1.0
tp399
s(L28L
L27L
tp400
(F121.08887438560137
F1.0
tp401
s(L11L
L28L
tp402
(F60.08499035754911
F1.0
tp403
s(L11L
L30L
tp404
(F75.16343532153797
F1.0
tp405
s(L31L
L30L
tp406
(F47.793056237177886
F1.0
tp407
s(L32L
L31L
tp408
(F85.50533922179987
F1.0
tp409
s(L37L
L32L
tp410
(F45.32166625455943
F1.0
tp411
s(L31L
L274L
tp412
(F11.203921121157713
F1.0
tp413
s(L30L
L274L
tp414
(F36.590559039131364
F1.0
tp415
s(L29L
L28L
tp416
(F116.81664550796987
F1.0
tp417
s(L29L
L276L
tp418
(F14.632216388717048
F1.0
tp419
s(L277L
L278L
tp420
(F60.2297627410201
F1.0
tp421
s(L278L
L280L
tp422
(F22.68679899750547
F1.0
tp423
s(L281L
L10L
tp424
(F13.022133668526779
F1.0
tp425
s(L281L
L280L
tp426
(F61.78081073237207
F1.0
tp427
s(L10L
L280L
tp428
(F48.759283993060016
F1.0
tp429
s(L17L
L275L
tp430
(F9.776789366552082
F1.0
tp431
s(L32L
L17L
tp432
(F55.965664997686716
F1.0
tp433
s(L2L
L17L
tp434
(F181.9357648065397
F1.0
tp435
s(L38L
L2L
tp436
(F92.83278724981824
F1.0
tp437
s(L37L
L38L
tp438
(F182.70783257931603
F1.0
tp439
s(L41L
L42L
tp440
(F31.90690699656626
F1.0
tp441
s(L43L
L42L
tp442
(F23.850934218680884
F1.0
tp443
s(L44L
L43L
tp444
(F31.498215627768257
F1.0
tp445
s(L44L
L26L
tp446
(F44.99080232523941
F1.0
tp447
s(L44L
L282L
tp448
(F8.674595151761613
F1.0
tp449
s(L283L
L282L
tp450
(F9.338130248505353
F1.0
tp451
s(L283L
L284L
tp452
(F17.172028929899973
F1.0
tp453
s(L285L
L284L
tp454
(F18.097197173882705
F1.0
tp455
s(L286L
L285L
tp456
(F22.17056948409932
F1.0
tp457
s(L286L
L287L
tp458
(F22.78035975410735
F1.0
tp459
s(L286L
L288L
tp460
(F29.202381058313783
F1.0
tp461
s(L289L
L290L
tp462
(F20.34374116072673
F1.0
tp463
s(L291L
L292L
tp464
(F12.18643225833862
F1.0
tp465
s(L26L
L291L
tp466
(F20.8444962031022
F1.0
tp467
s(L294L
L295L
tp468
(F9.72834997853658
F1.0
tp469
s(L25L
L296L
tp470
(F56.845910730123
F1.0
tp471
s(L25L
L24L
tp472
(F70.59673175193417
F1.0
tp473
s(L295L
L25L
tp474
(F12.24565534425109
F1.0
tp475
s(L24L
L300L
tp476
(F18.9307884580307
F1.0
tp477
s(L301L
L300L
tp478
(F51.79383993205656
F1.0
tp479
s(L302L
L301L
tp480
(F28.429650776660385
F1.0
tp481
s(L302L
L23L
tp482
(F17.13912020033038
F1.0
tp483
s(L22L
L23L
tp484
(F56.79284272402283
F1.0
tp485
s(L21L
L22L
tp486
(F47.03487863630894
F1.0
tp487
s(L289L
L26L
tp488
(F39.84823459134132
F1.0
tp489
s(L290L
L19L
tp490
(F57.02157634097834
F1.0
tp491
s(L35L
L36L
tp492
(F62.31751561229086
F1.0
tp493
s(L28L
L36L
tp494
(F145.0770646639553
F1.0
tp495
s(L28L
L305L
tp496
(F42.471836430690324
F1.0
tp497
s(L304L
L305L
tp498
(F18.370171521547647
F1.0
tp499
s(L303L
L305L
tp500
(F11.60137349445044
F1.0
tp501
s(L36L
L305L
tp502
(F103.08010473010195
F1.0
tp503
s(L35L
L115L
tp504
(F118.1322379722268
F1.0
tp505
s(L115L
L50L
tp506
(F76.45659852554004
F1.0
tp507
s(L50L
L27L
tp508
(F144.18789638719812
F1.0
tp509
s(L48L
L49L
tp510
(F119.07009989113008
F1.0
tp511
s(L48L
L47L
tp512
(F123.92956113654117
F1.0
tp513
s(L46L
L47L
tp514
(F88.57056436448656
F1.0
tp515
s(L281L
L15L
tp516
(F76.55475766770529
F1.0
tp517
s(L39L
L39L
tp518
(F0.0
F1.0
tp519
s(L40L
L307L
tp520
(F44.647903532248215
F1.0
tp521
s(L308L
L307L
tp522
(F35.99525250090955
F1.0
tp523
s(L306L
L40L
tp524
(F25.789547299550073
F1.0
tp525
s(L306L
L309L
tp526
(F66.52872450541292
F1.0
tp527
s(L46L
L15L
tp528
(F10.781667132238363
F1.0
tp529
s(L40L
L39L
tp530
(F111.58538855434811
F1.0
tp531
s(L15L
L46L
tp532
(F10.781667132238363
F1.0
tp533
s(L18L
L46L
tp534
(F40.470052642671874
F1.0
tp535
s(L16L
L15L
tp536
(F178.91840366778288
F1.0
tp537
s(L39L
L16L
tp538
(F63.645933222561936
F1.0
tp539
s(L2L
L39L
tp540
(F75.81028678813287
F1.0
tp541
s(L45L
L41L
tp542
(F79.60725870255305
F1.0
tp543
s(L46L
L45L
tp544
(F179.47423702522437
F1.0
tp545
s(L18L
L5L
tp546
(F55.36156460388564
F1.0
tp547
s(L19L
L5L
tp548
(F39.25925748974534
F1.0
tp549
s(L20L
L19L
tp550
(F43.5280479647993
F1.0
tp551
s(L7L
L21L
tp552
(F98.81684321398659
F1.0
tp553
s(L7L
L20L
tp554
(F67.41547938660855
F1.0
tp555
s(L45L
L58L
tp556
(F239.35812523547563
F1.0
tp557
s(L16L
L53L
tp558
(F239.92341008924478
F1.0
tp559
s(L310L
L311L
tp560
(F62.69940606103154
F1.0
tp561
s(L312L
L310L
tp562
(F67.67632939084913
F1.0
tp563
s(L58L
L55L
tp564
(F210.2788294533065
F1.0
tp565
s(L53L
L310L
tp566
(F138.69353330855256
F1.0
tp567
s(L57L
L310L
tp568
(F71.0923977068084
F1.0
tp569
s(L61L
L166L
tp570
(F43.2602274990898
F1.0
tp571
s(L142L
L256L
tp572
(F82.71839522125205
F1.0
tp573
s(L133L
L170L
tp574
(F34.66564442183292
F1.0
tp575
s(L70L
L197L
tp576
(F25.94367470178097
F1.0
tp577
s(L70L
L66L
tp578
(F85.07642744792611
F1.0
tp579
s(L198L
L197L
tp580
(F10.421749872856566
F1.0
tp581
s(L196L
L190L
tp582
(F25.069802522741675
F1.0
tp583
s(L194L
L62L
tp584
(F30.941091310645938
F1.0
tp585
s(L165L
L273L
tp586
(F27.466905668513878
F1.0
tp587
s(L66L
L67L
tp588
(F104.71612540105879
F1.0
tp589
s(L164L
L67L
tp590
(F22.69074468257664
F1.0
tp591
s(L160L
L164L
tp592
(F8.816162369062463
F1.0
tp593
s(L162L
L164L
tp594
(F40.71827749072158
F1.0
tp595
s(L163L
L162L
tp596
(F18.741190789969504
F1.0
tp597
s(L163L
L158L
tp598
(F9.034883348452889
F1.0
tp599
s(L162L
L146L
tp600
(F8.317680124471643
F1.0
tp601
s(L159L
L163L
tp602
(F23.420297157864564
F1.0
tp603
s(L245L
L133L
tp604
(F127.761642677676
F1.0
tp605
s(L256L
L257L
tp606
(F41.62439277818698
F1.0
tp607
s(L133L
L256L
tp608
(F79.16899455422342
F1.0
tp609
s(L132L
L168L
tp610
(F32.74764237537713
F1.0
tp611
s(L169L
L168L
tp612
(F13.581819207756253
F1.0
tp613
s(L130L
L131L
tp614
(F30.25122953324651
F1.0
tp615
s(L168L
L131L
tp616
(F51.64271341044283
F1.0
tp617
s(L127L
L131L
tp618
(F100.64684813842177
F1.0
tp619
s(L128L
L127L
tp620
(F56.8847465809904
F1.0
tp621
s(L129L
L128L
tp622
(F29.845535233162302
F1.0
tp623
s(L129L
L130L
tp624
(F156.5128186661464
F1.0
tp625
s(L128L
L213L
tp626
(F29.39156691749323
F1.0
tp627
s(L126L
L213L
tp628
(F27.384857255489877
F1.0
tp629
s(L127L
L125L
tp630
(F56.568717443274224
F1.0
tp631
s(L201L
L125L
tp632
(F23.061593678493132
F1.0
tp633
s(L124L
L201L
tp634
(F25.496273398796465
F1.0
tp635
s(L202L
L201L
tp636
(F17.669144131449098
F1.0
tp637
s(L123L
L124L
tp638
(F54.99210621975362
F1.0
tp639
s(L126L
L123L
tp640
(F51.34300726455444
F1.0
tp641
s(L214L
L121L
tp642
(F29.431504938942904
F1.0
tp643
s(L123L
L214L
tp644
(F17.56168261282718
F1.0
tp645
s(L125L
L126L
tp646
(F56.02127674140618
F1.0
tp647
s(L121L
L120L
tp648
(F53.237444992409245
F1.0
tp649
s(L124L
L120L
tp650
(F46.803348590150286
F1.0
tp651
s(L119L
L120L
tp652
(F72.56078281633128
F1.0
tp653
s(L199L
L200L
tp654
(F23.04004594211547
F1.0
tp655
s(L122L
L200L
tp656
(F34.407420766334745
F1.0
tp657
s(L119L
L200L
tp658
(F36.41962600218911
F1.0
tp659
s(L119L
L118L
tp660
(F89.45253433100063
F1.0
tp661
s(L172L
L118L
tp662
(F25.72707107805106
F1.0
tp663
s(L117L
L172L
tp664
(F27.695511646427807
F1.0
tp665
s(L174L
L172L
tp666
(F19.43510250747204
F1.0
tp667
s(L173L
L172L
tp668
(F33.78385643377933
F1.0
tp669
s(L245L
L242L
tp670
(F10.806774145629536
F1.0
tp671
s(L135L
L245L
tp672
(F24.230458765023
F1.0
tp673
s(L246L
L135L
tp674
(F25.891547794293015
F1.0
tp675
s(L246L
L239L
tp676
(F15.35986621732999
F1.0
tp677
s(L136L
L313L
tp678
(F26.40267774074686
F1.0
tp679
s(L246L
L136L
tp680
(F29.582339426571703
F1.0
tp681
s(L249L
L251L
tp682
(F6.447448064903579
F1.0
tp683
s(L314L
L122L
tp684
(NF1.0
tp685
s(L249L
L315L
tp686
(NF1.0
tp687
s(L249L
L137L
tp688
(F43.33478326943889
F1.0
tp689
s(L138L
L137L
tp690
(F63.79764693214942
F1.0
tp691
s(L279L
L278L
tp692
(F18.483830996908456
F1.0
tp693
s(L274L
L29L
tp694
(F63.26760801886791
F1.0
tp695
s(L69L
L66L
tp696
(F62.383608276673606
F1.0
tp697
s(L70L
L71L
tp698
(F65.10512399288821
F1.0
tp699
s(L74L
L71L
tp700
(F70.98531654152632
F1.0
tp701
s(L74L
L75L
tp702
(F86.42920975305573
F1.0
tp703
s(L219L
L75L
tp704
(F39.45179000573622
F1.0
tp705
s(L220L
L219L
tp706
(F10.809425342268716
F1.0
tp707
s(L221L
L219L
tp708
(F11.689362700344523
F1.0
tp709
s(L79L
L219L
tp710
(F37.396598405714535
F1.0
tp711
s(L82L
L79L
tp712
(F76.25443466942036
F1.0
tp713
s(L86L
L82L
tp714
(F66.78497383811468
F1.0
tp715
s(L88L
L86L
tp716
(F81.63489895946816
F1.0
tp717
s(L88L
L189L
tp718
(F43.27285725436327
F1.0
tp719
s(L87L
L189L
tp720
(F149.57162441278933
F1.0
tp721
s(L106L
L87L
tp722
(F151.09995294355994
F1.0
tp723
s(L203L
L106L
tp724
(F34.61894187957621
F1.0
tp725
s(L110L
L203L
tp726
(F40.86292680660731
F1.0
tp727
s(L264L
L110L
tp728
(F35.8353386684036
F1.0
tp729
s(L109L
L264L
tp730
(F42.82513537280527
F1.0
tp731
s(L267L
L112L
tp732
(F81.77864081602249
F1.0
tp733
s(L267L
L113L
tp734
(F102.22623164401121
F1.0
tp735
s(L267L
L109L
tp736
(F45.08479921653369
F1.0
tp737
s(L112L
L266L
tp738
(F72.71988615199488
F1.0
tp739
s(L139L
L266L
tp740
(F52.62835758851772
F1.0
tp741
s(L140L
L139L
tp742
(F23.287057216315507
F1.0
tp743
s(L141L
L140L
tp744
(F52.445748135396556
F1.0
tp745
s(L117L
L141L
tp746
(F133.50662487954705
F1.0
tp747
s(L175L
L118L
tp748
(F34.44097109041783
F1.0
tp749
s(L138L
L175L
tp750
(F88.26944668196465
F1.0
tp751
s(L176L
L175L
tp752
(F20.17305713800775
F1.0
tp753
s(L255L
L253L
tp754
(F8.746944440572355
F1.0
tp755
s(L113L
L253L
tp756
(F32.45161995562601
F1.0
tp757
s(L254L
L253L
tp758
(F60.787171692651235
F1.0
tp759
s(L254L
L232L
tp760
(F12.050813760353838
F1.0
tp761
s(L236L
L232L
tp762
(F20.7447194697998
F1.0
tp763
s(L111L
L232L
tp764
(F24.329531097416755
F1.0
tp765
s(L313L
L122L
tp766
(F88.60545306761769
F1.0
tp767
s(L238L
L313L
tp768
(F15.103914974413026
F1.0
tp769
s(L136L
L249L
tp770
(F45.807817269954775
F1.0
tp771
s(L254L
L137L
tp772
(F52.53907364352162
F1.0
tp773
s(L138L
L253L
tp774
(F54.87644455311791
F1.0
tp775
s(L111L
L180L
tp776
(F30.630049701736006
F1.0
tp777
s(L113L
L180L
tp778
(F34.57838402095314
F1.0
tp779
s(L181L
L180L
tp780
(F28.82203278900939
F1.0
tp781
s(L111L
L182L
tp782
(F31.532027839934877
F1.0
tp783
s(L181L
L182L
tp784
(F30.746804927747256
F1.0
tp785
s(L108L
L182L
tp786
(F114.94495634247787
F1.0
tp787
s(L109L
L108L
tp788
(F68.33537037316987
F1.0
tp789
s(L107L
L237L
tp790
(F30.343885075739575
F1.0
tp791
s(L107L
L108L
tp792
(F8.646903568083882
F1.0
tp793
s(L237L
L106L
tp794
(F47.86853286330309
F1.0
tp795
s(L204L
L203L
tp796
(F19.724985267086208
F1.0
tp797
s(L185L
L107L
tp798
(F67.6312213471725
F1.0
tp799
s(L84L
L185L
tp800
(F84.10437723306202
F1.0
tp801
s(L84L
L188L
tp802
(F33.020434885194874
F1.0
tp803
s(L87L
L188L
tp804
(F47.92907497731844
F1.0
tp805
s(L187L
L188L
tp806
(F21.83261654204978
F1.0
tp807
s(L83L
L184L
tp808
(F82.69245482239624
F1.0
tp809
s(L185L
L184L
tp810
(F72.98616908127059
F1.0
tp811
s(L183L
L184L
tp812
(F9.109865789755391
F1.0
tp813
s(L78L
L234L
tp814
(F80.51078502452177
F1.0
tp815
s(L111L
L234L
tp816
(F85.53849541565725
F1.0
tp817
s(L235L
L234L
tp818
(F13.605951422825456
F1.0
tp819
s(L78L
L216L
tp820
(F38.42122696174459
F1.0
tp821
s(L217L
L216L
tp822
(F18.488680553325676
F1.0
tp823
s(L230L
L216L
tp824
(F19.531723816731688
F1.0
tp825
s(L231L
L230L
tp826
(F14.245169395704018
F1.0
tp827
s(L77L
L230L
tp828
(F26.07762656886717
F1.0
tp829
s(L206L
L207L
tp830
(F20.82523855899052
F1.0
tp831
s(L206L
L77L
tp832
(F83.54519964958247
F1.0
tp833
s(L228L
L229L
tp834
(F13.813223726146449
F1.0
tp835
s(L77L
L229L
tp836
(F55.6132730360101
F1.0
tp837
s(L76L
L229L
tp838
(F51.598778575566
F1.0
tp839
s(L76L
L224L
tp840
(F47.855159915866096
F1.0
tp841
s(L75L
L224L
tp842
(F40.39441741763356
F1.0
tp843
s(L223L
L224L
tp844
(F18.511705289043675
F1.0
tp845
s(L72L
L76L
tp846
(F78.41702319877544
F1.0
tp847
s(L222L
L74L
tp848
(F40.32582083023821
F1.0
tp849
s(L72L
L222L
tp850
(F47.53995822912085
F1.0
tp851
s(L227L
L72L
tp852
(F50.50225015465045
F1.0
tp853
s(L259L
L227L
tp854
(F54.94175740473273
F1.0
tp855
s(L259L
L260L
tp856
(F42.34089578008794
F1.0
tp857
s(L259L
L209L
tp858
(F60.16280814034608
F1.0
tp859
s(L259L
L77L
tp860
(F84.00916915280258
F1.0
tp861
s(L68L
L259L
tp862
(F64.8828284152628
F1.0
tp863
s(L265L
L68L
tp864
(F77.04248358466901
F1.0
tp865
s(L226L
L69L
tp866
(F53.48052107381617
F1.0
tp867
s(L69L
L225L
tp868
(F42.764751901625594
F1.0
tp869
s(L225L
L71L
tp870
(F44.96930643438379
F1.0
tp871
s(L121L
L215L
tp872
(F35.15991694909235
F1.0
tp873
s(L117L
L215L
tp874
(F124.85027898870453
F1.0
tp875
s(L210L
L142L
tp876
(F32.26074533234143
F1.0
tp877
s(L170L
L171L
tp878
(F45.479733803679935
F1.0
tp879
s(L86L
L85L
tp880
(F86.81645476758042
F1.0
tp881
s(L186L
L85L
tp882
(F10.722977152862084
F1.0
tp883
s(L81L
L85L
tp884
(F70.11504714231027
F1.0
tp885
s(L82L
L81L
tp886
(F87.29074792369636
F1.0
tp887
s(L83L
L81L
tp888
(F104.27233054856546
F1.0
tp889
s(L218L
L80L
tp890
(F17.12476957622239
F1.0
tp891
s(L79L
L80L
tp892
(F90.50477808967858
F1.0
tp893
s(L78L
L80L
tp894
(F101.22690861432065
F1.0
tp895
s(L263L
L264L
tp896
(F31.478313109240137
F1.0
tp897
s(L268L
L267L
tp898
(F28.943961490033505
F1.0
tp899
s(L161L
L164L
tp900
(F15.643920734015209
F1.0
tp901
s(L163L
L134L
tp902
(F82.18002151606288
F1.0
tp903
s(L226L
L68L
tp904
(F51.37086958524758
F1.0
tp905
s(L135L
L265L
tp906
(F86.91182355397304
F1.0
tp907
s(L206L
L137L
tp908
(F83.96586838502073
F1.0
tp909
s(L271L
L272L
tp910
(F6.135867373346111
F1.0
tp911
s(L269L
L271L
tp912
(F106.653064244602
F1.0
tp913
s(L87L
L89L
tp914
(F57.570737125989176
F1.0
tp915
s(L98L
L89L
tp916
(F52.273384477517666
F1.0
tp917
s(L99L
L98L
tp918
(F72.96762183931654
F1.0
tp919
s(L100L
L99L
tp920
(F53.33957796631271
F1.0
tp921
s(L100L
L101L
tp922
(F69.77230000225038
F1.0
tp923
s(L102L
L101L
tp924
(F78.6944407711576
F1.0
tp925
s(L103L
L102L
tp926
(F58.25225856698592
F1.0
tp927
s(L248L
L103L
tp928
(F48.26249284030742
F1.0
tp929
s(L104L
L248L
tp930
(F23.062445960392946
F1.0
tp931
s(L105L
L104L
tp932
(F48.85845675096535
F1.0
tp933
s(L89L
L105L
tp934
(F146.6214460641737
F1.0
tp935
s(L91L
L90L
tp936
(F91.04632129126854
F1.0
tp937
s(L89L
L90L
tp938
(F105.97644450629153
F1.0
tp939
s(L93L
L90L
tp940
(F35.97266421723588
F1.0
tp941
s(L94L
L93L
tp942
(F44.87373795232459
F1.0
tp943
s(L97L
L94L
tp944
(F72.23902205348924
F1.0
tp945
s(L91L
L92L
tp946
(F35.56960273628293
F1.0
tp947
s(L95L
L96L
tp948
(F72.80882398574842
F1.0
tp949
s(L95L
L92L
tp950
(F45.109341292459995
F1.0
tp951
s(L93L
L92L
tp952
(F92.0380530044128
F1.0
tp953
s(L96L
L97L
tp954
(F92.56625218088224
F1.0
tp955
s(L94L
L95L
tp956
(F92.03174694429032
F1.0
tp957
s(L97L
L316L
tp958
(F27.604243760022484
F1.0
tp959
s(L100L
L316L
tp960
(F104.36765364247992
F1.0
tp961
s(L104L
L98L
tp962
(F145.84219087983234
F1.0
tp963
s(L99L
L103L
tp964
(F146.60572923875938
F1.0
tp965
s(L258L
L103L
tp966
(F92.65261502089992
F1.0
tp967
s(L143L
L105L
tp968
(F101.12347182227519
F1.0
tp969
s(L205L
L143L
tp970
(F19.579810205649522
F1.0
tp971
s(L144L
L205L
tp972
(F28.228567316309473
F1.0
tp973
s(L145L
L144L
tp974
(F134.40434561193368
F1.0
tp975
s(L261L
L143L
tp976
(F112.71802157348723
F1.0
tp977
s(L262L
L261L
tp978
(F7.4207770404461275
F1.0
tp979
s(L105L
L143L
tp980
(F101.12347182227519
F1.0
tp981
s(L220L
L317L
tp982
(F81.6550978686659
F1.0
tp983
s(L217L
L317L
tp984
(F84.65590497815737
F1.0
tp985
s(L218L
L317L
tp986
(F11.835338190156808
F1.0
tp987
s(L16L
L45L
tp988
(F12.625065630456898
F1.0
tp989
s(L47L
L10L
tp990
(F11.03943791312914
F1.0
tp991
s(L50L
L49L
tp992
(F28.77764684760323
F1.0
tp993
s(L318L
L319L
tp994
(F30.177927828242666
F1.0
tp995
s(L27L
L319L
tp996
(F29.650515354461945
F1.0
tp997
s(L27L
L318L
tp998
(F42.69812209878905
F1.0
tp999
s(L320L
L321L
tp1000
(F136.02651838651067
F1.0
tp1001
s(L72L
L69L
tp1002
(F74.49331936159024
F1.0
tp1003
s(L184L
L234L
tp1004
(F71.74289622814133
F1.0
tp1005
s(L27L
L325L
tp1006
(F25.674665090753784
F1.0
tp1007
s(L280L
L325L
tp1008
(F48.993518801160036
F1.0
tp1009
s(L324L
L325L
tp1010
(F2.808808696299027
F1.0
tp1011
s(L189L
L327L
tp1012
(F2.239074106094154
F1.0
tp1013
s(L328L
L55L
tp1014
(F5.475521145113898
F1.0
tp1015
s(L328L
L329L
tp1016
(F121.419384913214
F1.0
tp1017
s(L330L
L329L
tp1018
(F405.93536981203175
F1.0
tp1019
s(L331L
L330L
tp1020
(F31.372322405713696
F1.0
tp1021
s(L332L
L331L
tp1022
(F306.84107998365585
F1.0
tp1023
s(L333L
L332L
tp1024
(F12.73244392150687
F1.0
tp1025
s(L333L
L335L
tp1026
(F201.18443069846532
F1.0
tp1027
s(L334L
L335L
tp1028
(F122.39142368186512
F1.0
tp1029
s(L336L
L334L
tp1030
(F69.38367710398546
F1.0
tp1031
s(L337L
L336L
tp1032
(F84.83232573366716
F1.0
tp1033
s(L82L
L338L
tp1034
(F35.88478919844394
F1.0
tp1035
s(L272L
L349L
tp1036
(F125.33059024861686
F1.0
tp1037
s(L338L
L349L
tp1038
(F549.2833012734284
F1.0
tp1039
s(L339L
L340L
tp1040
(F31.50330346789012
F1.0
tp1041
s(L349L
L339L
tp1042
(F215.480856597139
F1.0
tp1043
s(L341L
L340L
tp1044
(F16.63459502767527
F1.0
tp1045
s(L341L
L342L
tp1046
(F108.95821407201083
F1.0
tp1047
s(L343L
L342L
tp1048
(F29.872657033671004
F1.0
tp1049
s(L344L
L343L
tp1050
(F38.968591378637726
F1.0
tp1051
s(L344L
L345L
tp1052
(F135.33224349688916
F1.0
tp1053
s(L345L
L346L
tp1054
(F318.2776956425969
F1.0
tp1055
s(L347L
L348L
tp1056
(F49.4774247893443
F1.0
tp1057
s(L346L
L347L
tp1058
(F526.6978582009514
F1.0
tp1059
s(L356L
L352L
tp1060
(F13.395910047393812
F1.0
tp1061
s(L357L
L353L
tp1062
(F9.859315331737374
F1.0
tp1063
s(L354L
L358L
tp1064
(F9.819303697549273
F1.0
tp1065
s(L355L
L359L
tp1066
(F10.058947738229843
F1.0
tp1067
s(L353L
L354L
tp1068
(F77.03856676164222
F1.0
tp1069
s(L363L
L366L
tp1070
(F13.000832543035635
F1.0
tp1071
s(L365L
L367L
tp1072
(F12.609675842007164
F1.0
tp1073
s(L364L
L368L
tp1074
(F10.812422329058263
F1.0
tp1075
s(L353L
L368L
tp1076
(F13.758232258269253
F1.0
tp1077
s(L367L
L368L
tp1078
(F20.020348618261252
F1.0
tp1079
s(L370L
L371L
tp1080
(F17.02097091196832
F1.0
tp1081
s(L369L
L370L
tp1082
(F62.266439602769985
F1.0
tp1083
s(L354L
L369L
tp1084
(F16.437365265691916
F1.0
tp1085
s(L361L
L369L
tp1086
(F10.84227236772302
F1.0
tp1087
s(L362L
L370L
tp1088
(F10.625086071597394
F1.0
tp1089
s(L371L
L360L
tp1090
(F10.98628311357123
F1.0
tp1091
s(L371L
L355L
tp1092
(F19.326609408914933
F1.0
tp1093
s(L366L
L352L
tp1094
(F16.89576000398814
F1.0
tp1095
s(L378L
L379L
tp1096
(F11.52920422082718
F1.0
tp1097
s(L366L
L379L
tp1098
(F13.200455190738902
F1.0
tp1099
s(L367L
L379L
tp1100
(F48.1446795918297
F1.0
tp1101
s(L374L
L366L
tp1102
(F14.930037323202052
F1.0
tp1103
s(L373L
L374L
tp1104
(F20.89256398508203
F1.0
tp1105
s(L373L
L372L
tp1106
(F28.500600299556684
F1.0
tp1107
s(L376L
L372L
tp1108
(F21.02413932540718
F1.0
tp1109
s(L376L
L377L
tp1110
(F20.50177300277983
F1.0
tp1111
s(L371L
L377L
tp1112
(F12.327923133646138
F1.0
tp1113
s(L372L
L14L
tp1114
(F72.67621622797485
F1.0
tp1115
s(L292L
L293L
tp1116
(F10.51520389868767
F1.0
tp1117
s(L294L
L293L
tp1118
(F10.950809195807054
F1.0
tp1119
s(L312L
L311L
tp1120
(F34.72924286942155
F1.0
tp1121
s(L387L
L386L
tp1122
(F236.81568082544862
F1.0
tp1123
s(L339L
L387L
tp1124
(F76.0312174948892
F1.0
tp1125
s(L386L
L344L
tp1126
(F333.57564129408223
F1.0
tp1127
s(L391L
L389L
tp1128
(F9.286392860951354
F1.0
tp1129
s(L388L
L390L
tp1130
(F12.780342936267923
F1.0
tp1131
s(L276L
L390L
tp1132
(F36.85425228850201
F1.5
tp1133
s(L275L
L390L
tp1134
(F42.08928424875417
F1.5
tp1135
s(L309L
L15L
tp1136
(F94.34078306448053
F1.0
tp1137
s(L275L
L309L
tp1138
(F27.44026134028208
F1.0
tp1139
s(L391L
L277L
tp1140
(F84.76379285042748
F1.0
tp1141
s(L276L
L391L
tp1142
(F15.91536115490899
F1.0
tp1143
s(L50L
L51L
tp1144
(F56.491612566962466
F1.0
tp1145
s(L36L
L51L
tp1146
(F57.44306454297285
F1.0
tp1147
s(L80L
L81L
tp1148
(F73.45266266250205
F1.0
tp1149
s(L85L
L84L
tp1150
(F103.8316074646215
L1L
tp1151
s(L83L
L84L
tp1152
(F73.44736465102713
L1L
tp1153
s(L78L
L83L
tp1154
(F72.56892851956522
L1L
tp1155
ssVbuilding
p1156
(dp1157
L0L
V\u6c99\u6cb3\u56fe\u4e66\u9986
p1158
sL1L
V\u6559\u5b66\u5b9e\u9a8c\u7efc\u5408\u697c
p1159
sL2L
V\u6559\u5ba4\u5b9e\u9a8c\u697c
p1160
sL3L
V\u6c99\u6cb3\u6821\u533b\u9662
p1161
sL4L
V\u884c\u653f\u529e\u516c\u697c
p1162
sL5L
V\u6559\u5de5\u98df\u5802
p1163
sL6L
V\u5b66\u751f\u98df\u5802
p1164
sL7L
V\u5b66\u751f\u6d3b\u52a8\u4e2d\u5fc3
p1165
sL8L
V\u96c1\u5317\u56ed
p1166
sL9L
V\u751f\u6d3b\u670d\u52a1\u533a
p1167
sL10L
V\u96c1\u5357\u56ed
p1168
sL11L
V\u5feb\u9012\u7ad9
p1169
sL12L
V\u57fa\u5efa\u5904
p1170
sL13L
V\u6559\u4e09\u697c
p1171
sL14L
V\u6559\u56db\u697c
p1172
sL15L
V\u5b66\u751f1\u53f7\u516c\u5bd3
p1173
sL16L
V\u5b66\u751f2\u53f7\u516c\u5bd3
p1174
sL17L
V\u5b66\u751f13\u53f7\u516c\u5bd3
p1175
sL18L
V\u5b66\u751f4\u53f7\u516c\u5bd3
p1176
ssVbuildingPoint
p1177
(dp1178
(F12944770.94067205
F4889036.407406665
tp1179
L0L
s(F12944886.132475385
F4889069.490168925
tp1180
L0L
s(F12944936.753110416
F4889033.218701834
tp1181
L0L
s(F12944954.290937575
F4888956.291303259
tp1182
L0L
s(F12944819.16975755
F4888897.698947962
tp1183
L0L
s(F12944819.966950865
F4888926.795834885
tp1184
L0L
s(F12944870.188974034
F4888970.241866941
tp1185
L0L
s(F12944883.740956264
F4888989.772662176
tp1186
L0L
s(F12944847.868078228
F4888835.519283576
tp1187
L1L
s(F12945001.722860174
F4888881.356849957
tp1188
L1L
s(F12945041.581613548
F4888776.12975017
tp1189
L1L
s(F12944883.342344405
F4888722.320417909
tp1190
L1L
s(F12944859.427092379
F4888790.478864893
tp1191
L1L
s(F12944835.511840355
F4888814.394147328
tp1192
L1L
s(F12944980.59770872
F4888815.191325436
tp1193
L1L
s(F12944937.151661461
F4888801.639343207
tp1194
L1L
s(F12945047.959008008
F4888899.691862824
tp1195
L2L
s(F12945180.68866891
F4888827.1489514485
tp1196
L2L
s(F12945146.320034608
F4888699.174571772
tp1197
L2L
s(F12945069.66312479
F4888852.943416627
tp1198
L2L
s(F12944658.801795937
F4889055.933626836
tp1199
L3L
s(F12944656.261223033
F4889040.182072893
tp1200
L3L
s(F12944632.636920867
F4889041.966494711
tp1201
L3L
s(F12944636.316177124
F4888989.849161579
tp1202
L4L
s(F12944701.089199077
F4889012.570592531
tp1203
L4L
s(F12944716.010739297
F4888971.197242772
tp1204
L4L
s(F12944642.081331188
F4888950.510574362
tp1205
L4L
s(F12944617.74127568
F4888988.498919856
tp1206
L5L
s(F12944562.64465419
F4888969.891721931
tp1207
L5L
s(F12944576.177156743
F4888926.152723014
tp1208
L5L
s(F12944631.51544488
F4888944.034967091
tp1209
L5L
s(F12944604.692069545
F4888957.084173225
tp1210
L5L
s(F12944579.318620345
F4888954.184348616
tp1211
L5L
s(F12944602.69012912
F4888944.943919561
tp1212
L5L
s(F12944580.645633591
F4888901.184138863
tp1213
L6L
s(F12944620.263265558
F4888917.610963074
tp1214
L6L
s(F12944641.199420325
F4888849.004796835
tp1215
L6L
s(F12944749.772536144
F4888885.072689228
tp1216
L7L
s(F12944687.891029695
F4888900.288230704
tp1217
L7L
s(F12944397.596828349
F4888934.074833422
tp1218
L8L
s(F12944423.14104252
F4888843.549671671
tp1219
L8L
s(F12944500.22185673
F4888812.32052796
tp1220
L8L
s(F12944548.818913568
F4888806.612501906
tp1221
L9L
s(F12944543.791693835
F4888810.512492419
tp1222
L9L
s(F12944592.976113731
F4888751.217800857
tp1223
L10L
s(F12944704.623456176
F4888442.309352507
tp1224
L10L
s(F12944619.570252635
F4888586.652636185
tp1225
L10L
s(F12944626.408614954
F4888529.3812906165
tp1226
L10L
s(F12944616.578479309
F4888534.5100379
tp1227
L10L
s(F12944545.630376492
F4888631.102023873
tp1228
L10L
s(F12943984.718511097
F4888676.690313572
tp1229
L11L
s(F12943992.411689086
F4888657.884792737
tp1230
L11L
s(F12944019.337746836
F4888661.731381731
tp1231
L11L
s(F12944012.821348928
F4888682.246484995
tp1232
L11L
s(F12943994.44325223
F4888620.273734761
tp1233
L12L
s(F12944037.610449022
F4888637.369656865
tp1234
L12L
s(F12944039.747439284
F4888618.991576472
tp1235
L12L
s(F12943999.572015818
F4888608.734016689
tp1236
L12L
s(F12944010.256967133
F4888618.564184941
tp1237
L12L
s(F12944024.788507443
F4888620.273734761
tp1238
L12L
s(F12951970.578292279
F4860019.781125213
tp1239
L13L
s(F12952122.393593198
F4860026.381798291
tp1240
L13L
s(F12952130.880178008
F4859971.690555898
tp1241
L13L
s(F12951975.764522564
F4859963.203989074
tp1242
L13L
s(F12952099.654631058
F4859994.876389919
tp1243
L13L
s(F12952118.39242337
F4860247.169412918
tp1244
L14L
s(F12952120.909813514
F4860193.675076476
tp1245
L14L
s(F12952080.94638306
F4860205.9472993985
tp1246
L14L
s(F12951977.733795388
F4860197.136469915
tp1247
L14L
s(F12951975.845740778
F4860182.976204386
tp1248
L14L
s(F12951968.9229539
F4860235.841205296
tp1249
L14L
s(F12951946.83602343
F4860296.600433951
tp1250
L15L
s(F12951948.516147729
F4860280.218965671
tp1251
L15L
s(F12952021.182645254
F4860285.679449757
tp1252
L15L
s(F12952019.50248891
F4860303.321027284
tp1253
L15L
s(F12951980.859053213
F4860302.060918037
tp1254
L15L
s(F12951985.479459126
F4860278.958856424
tp1255
L15L
s(F12951984.639396977
F4860292.820090187
tp1256
L15L
s(F12951971.61820934
F4860292.820090187
tp1257
L15L
s(F12952043.864643747
F4860299.120652445
tp1258
L16L
s(F12952043.864643747
F4860286.519527929
tp1259
L16L
s(F12952114.430953855
F4860287.779637176
tp1260
L16L
s(F12952115.271016004
F4860301.640870939
tp1261
L16L
s(F12952083.768204715
F4860305.421214703
tp1262
L16L
s(F12952067.806799555
F4860302.060918037
tp1263
L16L
s(F12952066.12664321
F4860282.739184165
tp1264
L16L
s(F12952091.748923317
F4860286.939559003
tp1265
L16L
s(F12952103.930016758
F4860294.500230509
tp1266
L16L
s(F12952069.906986974
F4860294.920277606
tp1267
L16L
s(F12952041.344425254
F4860300.380761691
tp1268
L16L
s(F12952047.644987512
F4860283.579262338
tp1269
L16L
s(F12952122.411672456
F4860291.139933842
tp1270
L16L
s(F12952117.371203423
F4860303.321027284
tp1271
L16L
s(F12952066.966737408
F4860294.0801994335
tp1272
L16L
s(F12952103.08995461
F4860294.920277606
tp1273
L16L
s(F12951907.427205985
F4860448.291609626
tp1274
L17L
s(F12951927.58901803
F4860300.018365007
tp1275
L17L
s(F12951916.248018784
F4860298.758271783
tp1276
L17L
s(F12952041.483204067
F4860366.27506909
tp1277
L18L
s(F12952113.788083931
F4860369.718164861
tp1278
L18L
s(F12952114.41409049
F4860348.746622772
tp1279
L18L
ssVcntBuilding
p1280
L19L
sVvPoint
p1281
(dp1282
V\u5bb6
p1283
L20L
sV\u671f\u672b\u8003\u8bd5\u5730\u70b9-N101
p1284
L356L
sV\u671f\u672b\u8003\u8bd5\u5730\u70b9-S101
p1285
L359L
sV\u627e\u5bfc\u5458
p1286
L36L
sV\u98df\u5802
p1287
L389L
ssVedgeBike
p1288
(dp1289
(L16L
L15L
tp1290
(F178.91840366778288
F0.5
tp1291
s(L45L
L46L
tp1292
(F179.47423702522437
F0.5
tp1293
s(L16L
L45L
tp1294
(F12.625065630456898
F0.5
tp1295
s(L15L
L46L
tp1296
(F10.781667132238363
F0.5
tp1297
s(L18L
L46L
tp1298
(F40.470052642671874
F0.5
tp1299
s(L18L
L5L
tp1300
(F55.36156460388564
F0.5
tp1301
s(L19L
L5L
tp1302
(F39.25925748974534
F0.5
tp1303
s(L19L
L20L
tp1304
(F43.5280479647993
F0.5
tp1305
s(L7L
L20L
tp1306
(F67.41547938660855
F0.5
tp1307
s(L7L
L21L
tp1308
(F98.81684321398659
F0.5
tp1309
s(L46L
L47L
tp1310
(F88.57056436448656
F0.5
tp1311
s(L48L
L47L
tp1312
(F123.92956113654117
F0.5
tp1313
s(L15L
L281L
tp1314
(F76.55475766770529
F0.5
tp1315
s(L10L
L281L
tp1316
(F13.022133668526779
F0.5
tp1317
s(L280L
L10L
tp1318
(F48.759283993060016
F0.5
tp1319
s(L280L
L325L
tp1320
(F48.993518801160036
F0.5
tp1321
s(L27L
L325L
tp1322
(F25.674665090753784
F0.5
tp1323
s(L324L
L325L
tp1324
(F2.808808696299027
F0.5
tp1325
s(L27L
L48L
tp1326
(F10.9987127159091
F0.5
tp1327
s(L14L
L48L
tp1328
(F83.66733901881622
F0.5
tp1329
s(L152L
L14L
tp1330
(F136.65242977717133
F0.5
tp1331
s(L319L
L27L
tp1332
(F29.650515354461945
F0.5
tp1333
s(L28L
L319L
tp1334
(F91.44262639130235
F0.5
tp1335
s(L11L
L28L
tp1336
(F60.08499035754911
F0.5
tp1337
s(L11L
L30L
tp1338
(F75.16343532153797
F0.5
tp1339
s(L274L
L30L
tp1340
(F36.590559039131364
F0.5
tp1341
s(L31L
L274L
tp1342
(F11.203921121157713
F0.5
tp1343
s(L32L
L31L
tp1344
(F85.50533922179987
F0.5
tp1345
s(L37L
L32L
tp1346
(F45.32166625455943
F0.5
tp1347
s(L17L
L32L
tp1348
(F55.965664997686716
F0.5
tp1349
s(L275L
L17L
tp1350
(F9.776789366552082
F0.5
tp1351
s(L309L
L275L
tp1352
(F27.44026134028208
F0.5
tp1353
s(L15L
L309L
tp1354
(F94.34078306448053
F0.5
tp1355
s(L14L
L372L
tp1356
(F72.67621622797485
F0.5
tp1357
s(L49L
L48L
tp1358
(F119.07009989113008
F0.5
tp1359
s(L50L
L27L
tp1360
(F144.18789638719812
F0.5
tp1361
s(L115L
L50L
tp1362
(F76.45659852554004
F0.5
tp1363
s(L114L
L49L
tp1364
(F98.5215408247537
F0.5
tp1365
s(L114L
L33L
tp1366
(F76.61168455410387
F0.5
tp1367
s(L34L
L33L
tp1368
(F80.66489204980644
F0.5
tp1369
s(L35L
L115L
tp1370
(F118.1322379722268
F0.5
tp1371
s(L35L
L36L
tp1372
(F62.31751561229086
F0.5
tp1373
s(L305L
L36L
tp1374
(F103.08010473010195
F0.5
tp1375
s(L28L
L305L
tp1376
(F42.471836430690324
F0.5
tp1377
s(L303L
L305L
tp1378
(F11.60137349445044
F0.5
tp1379
s(L304L
L305L
tp1380
(F18.370171521547647
F0.5
tp1381
s(L319L
L318L
tp1382
(F30.177927828242666
F0.5
tp1383
s(L36L
L51L
tp1384
(F57.44306454297285
F0.5
tp1385
s(L50L
L51L
tp1386
(F56.491612566962466
F0.5
tp1387
s(L17L
L308L
tp1388
(F98.10027453335549
F0.5
tp1389
s(L2L
L308L
tp1390
(F83.84701779837971
F0.5
tp1391
s(L39L
L2L
tp1392
(F75.81028678813287
F0.5
tp1393
s(L16L
L39L
tp1394
(F63.645933222561936
F0.5
tp1395
s(L38L
L2L
tp1396
(F92.83278724981824
F0.5
tp1397
s(L38L
L37L
tp1398
(F182.70783257931603
F0.5
tp1399
s(L45L
L41L
tp1400
(F79.60725870255305
F0.5
tp1401
s(L45L
L58L
tp1402
(F239.35812523547563
F0.5
tp1403
s(L16L
L53L
tp1404
(F239.92341008924478
F0.5
tp1405
s(L310L
L53L
tp1406
(F138.69353330855256
F0.5
tp1407
s(L310L
L57L
tp1408
(F71.0923977068084
F0.5
tp1409
s(L55L
L58L
tp1410
(F210.2788294533065
F0.5
tp1411
s(L328L
L55L
tp1412
(F5.475521145113898
F0.5
tp1413
s(L328L
L329L
tp1414
(F121.419384913214
F0.5
tp1415
s(L330L
L329L
tp1416
(F405.93536981203175
F0.5
tp1417
s(L331L
L330L
tp1418
(F31.372322405713696
F0.5
tp1419
s(L332L
L331L
tp1420
(F306.84107998365585
F0.5
tp1421
s(L333L
L332L
tp1422
(F12.73244392150687
F0.5
tp1423
s(L335L
L333L
tp1424
(F201.18443069846532
F0.5
tp1425
s(L334L
L335L
tp1426
(F122.39142368186512
F0.5
tp1427
s(L336L
L334L
tp1428
(F69.38367710398546
F0.5
tp1429
s(L337L
L336L
tp1430
(F84.83232573366716
F0.5
tp1431
s(L57L
L55L
tp1432
(F10.88350248852598
F0.5
tp1433
s(L349L
L272L
tp1434
(F125.33059024861686
F0.5
tp1435
s(L271L
L272L
tp1436
(F6.135867373346111
F0.5
tp1437
s(L271L
L269L
tp1438
(F106.653064244602
F0.5
tp1439
s(L247L
L269L
tp1440
(F6.318664182097606
F0.5
tp1441
s(L210L
L269L
tp1442
(F49.85579393659961
F0.5
tp1443
s(L210L
L142L
tp1444
(F32.26074533234143
F0.5
tp1445
s(L61L
L142L
tp1446
(F25.970253683816708
F0.5
tp1447
s(L166L
L61L
tp1448
(F43.2602274990898
F0.5
tp1449
s(L62L
L166L
tp1450
(F61.98167186526728
F0.5
tp1451
s(L271L
L63L
tp1452
(F63.189755732001736
F0.5
tp1453
s(L62L
L63L
tp1454
(F45.33077614164288
F0.5
tp1455
s(L166L
L167L
tp1456
(F18.151964727912993
F0.5
tp1457
s(L192L
L63L
tp1458
(F32.580608961234525
F0.5
tp1459
s(L64L
L192L
tp1460
(F39.770390020230444
F0.5
tp1461
s(L193L
L192L
tp1462
(F20.231899440236564
F0.5
tp1463
s(L62L
L190L
tp1464
(F35.875351562266154
F0.5
tp1465
s(L65L
L190L
tp1466
(F45.665291419856665
F0.5
tp1467
s(L61L
L273L
tp1468
(F43.82737536757026
F0.5
tp1469
s(L67L
L273L
tp1470
(F16.52283924374137
F0.5
tp1471
s(L66L
L67L
tp1472
(F104.71612540105879
F0.5
tp1473
s(L70L
L66L
tp1474
(F85.07642744792611
F0.5
tp1475
s(L197L
L70L
tp1476
(F25.94367470178097
F0.5
tp1477
s(L71L
L70L
tp1478
(F65.10512399288821
F0.5
tp1479
s(L225L
L71L
tp1480
(F44.96930643438379
F0.5
tp1481
s(L69L
L225L
tp1482
(F42.764751901625594
F0.5
tp1483
s(L86L
L85L
tp1484
(F86.81645476758042
F0.5
tp1485
s(L84L
L85L
tp1486
(F103.8316074646215
F0.5
tp1487
s(L84L
L188L
tp1488
(F33.020434885194874
F0.5
tp1489
s(L87L
L188L
tp1490
(F47.92907497731844
F0.5
tp1491
s(L189L
L87L
tp1492
(F149.57162441278933
F0.5
tp1493
s(L88L
L189L
tp1494
(F43.27285725436327
F0.5
tp1495
s(L86L
L88L
tp1496
(F81.63489895946816
F0.5
tp1497
s(L69L
L66L
tp1498
(F62.383608276673606
F0.5
tp1499
s(L226L
L69L
tp1500
(F53.48052107381617
F0.5
tp1501
s(L226L
L68L
tp1502
(F51.37086958524758
F0.5
tp1503
s(L86L
L82L
tp1504
(F66.78497383811468
F0.5
tp1505
s(L79L
L82L
tp1506
(F76.25443466942036
F0.5
tp1507
s(L80L
L79L
tp1508
(F90.50477808967858
F0.5
tp1509
s(L78L
L80L
tp1510
(F101.22690861432065
F0.5
tp1511
s(L78L
L83L
tp1512
(F72.56892851956522
F0.5
tp1513
s(L84L
L83L
tp1514
(F73.44736465102713
F0.5
tp1515
s(L185L
L84L
tp1516
(F84.10437723306202
F0.5
tp1517
s(L106L
L87L
tp1518
(F151.09995294355994
F0.5
tp1519
s(L67L
L68L
tp1520
(F65.24429225723628
F0.5
tp1521
s(L265L
L68L
tp1522
(F77.04248358466901
F0.5
tp1523
s(L107L
L185L
tp1524
(F67.6312213471725
F0.5
tp1525
s(L237L
L106L
tp1526
(F47.86853286330309
F0.5
tp1527
s(L67L
L164L
tp1528
(F22.69074468257664
F0.5
tp1529
s(L107L
L237L
tp1530
(F30.343885075739575
F0.5
tp1531
s(L162L
L164L
tp1532
(F40.71827749072158
F0.5
tp1533
s(L108L
L107L
tp1534
(F8.646903568083882
F0.5
tp1535
s(L109L
L108L
tp1536
(F68.33537037316987
F0.5
tp1537
s(L163L
L162L
tp1538
(F18.741190789969504
F0.5
tp1539
s(L109L
L264L
tp1540
(F42.82513537280527
F0.5
tp1541
s(L160L
L164L
tp1542
(F8.816162369062463
F0.5
tp1543
s(L110L
L203L
tp1544
(F40.86292680660731
F0.5
tp1545
s(L110L
L106L
tp1546
(F75.40142167444533
F0.5
tp1547
s(L159L
L163L
tp1548
(F23.420297157864564
F0.5
tp1549
s(L134L
L163L
tp1550
(F82.18002151606288
F0.5
tp1551
s(L245L
L134L
tp1552
(F44.559940488393714
F0.5
tp1553
s(L264L
L110L
tp1554
(F35.8353386684036
F0.5
tp1555
s(L112L
L267L
tp1556
(F81.77864081602249
F0.5
tp1557
s(L109L
L267L
tp1558
(F45.08479921653369
F0.5
tp1559
s(L182L
L108L
tp1560
(F114.94495634247787
F0.5
tp1561
s(L111L
L182L
tp1562
(F31.532027839934877
F0.5
tp1563
s(L180L
L111L
tp1564
(F30.630049701736006
F0.5
tp1565
s(L113L
L180L
tp1566
(F34.57838402095314
F0.5
tp1567
s(L112L
L113L
tp1568
(F20.45121448992669
F0.5
tp1569
s(L266L
L112L
tp1570
(F72.71988615199488
F0.5
tp1571
s(L139L
L266L
tp1572
(F52.62835758851772
F0.5
tp1573
s(L140L
L139L
tp1574
(F23.287057216315507
F0.5
tp1575
s(L234L
L111L
tp1576
(F85.53849541565725
F0.5
tp1577
s(L78L
L234L
tp1578
(F80.51078502452177
F0.5
tp1579
s(L79L
L219L
tp1580
(F37.396598405714535
F0.5
tp1581
s(L75L
L219L
tp1582
(F39.45179000573622
F0.5
tp1583
s(L78L
L233L
tp1584
(F24.765338076666332
F0.5
tp1585
s(L216L
L230L
tp1586
(F19.531723816731688
F0.5
tp1587
s(L233L
L216L
tp1588
(F13.667584754935818
F0.5
tp1589
s(L77L
L230L
tp1590
(F26.07762656886717
F0.5
tp1591
s(L111L
L232L
tp1592
(F24.329531097416755
F0.5
tp1593
s(L254L
L232L
tp1594
(F12.050813760353838
F0.5
tp1595
s(L137L
L254L
tp1596
(F52.53907364352162
F0.5
tp1597
s(L113L
L253L
tp1598
(F32.45161995562601
F0.5
tp1599
s(L138L
L253L
tp1600
(F54.87644455311791
F0.5
tp1601
s(L87L
L89L
tp1602
(F57.570737125989176
F0.5
tp1603
s(L98L
L89L
tp1604
(F52.273384477517666
F0.5
tp1605
s(L99L
L98L
tp1606
(F72.96762183931654
F0.5
tp1607
s(L100L
L99L
tp1608
(F53.33957796631271
F0.5
tp1609
s(L101L
L100L
tp1610
(F69.77230000225038
F0.5
tp1611
s(L102L
L101L
tp1612
(F78.6944407711576
F0.5
tp1613
s(L103L
L102L
tp1614
(F58.25225856698592
F0.5
tp1615
s(L248L
L103L
tp1616
(F48.26249284030742
F0.5
tp1617
s(L104L
L248L
tp1618
(F23.062445960392946
F0.5
tp1619
s(L105L
L104L
tp1620
(F48.85845675096535
F0.5
tp1621
s(L105L
L89L
tp1622
(F146.6214460641737
F0.5
tp1623
s(L89L
L90L
tp1624
(F105.97644450629153
F0.5
tp1625
s(L90L
L93L
tp1626
(F35.97266421723588
F0.5
tp1627
s(L94L
L93L
tp1628
(F44.87373795232459
F0.5
tp1629
s(L97L
L94L
tp1630
(F72.23902205348924
F0.5
tp1631
s(L316L
L100L
tp1632
(F104.36765364247992
F0.5
tp1633
s(L316L
L97L
tp1634
(F27.604243760022484
F0.5
tp1635
s(L96L
L97L
tp1636
(F92.56625218088224
F0.5
tp1637
s(L92L
L95L
tp1638
(F45.109341292459995
F0.5
tp1639
s(L96L
L95L
tp1640
(F72.80882398574842
F0.5
tp1641
s(L91L
L92L
tp1642
(F35.56960273628293
F0.5
tp1643
s(L90L
L91L
tp1644
(F91.04632129126854
F0.5
tp1645
s(L93L
L92L
tp1646
(F92.0380530044128
F0.5
tp1647
s(L95L
L94L
tp1648
(F92.03174694429032
F0.5
tp1649
s(L103L
L99L
tp1650
(F146.60572923875938
F0.5
tp1651
s(L104L
L98L
tp1652
(F145.84219087983234
F0.5
tp1653
s(L143L
L105L
tp1654
(F101.12347182227519
F0.5
tp1655
s(L144L
L205L
tp1656
(F28.228567316309473
F0.5
tp1657
s(L145L
L144L
tp1658
(F134.40434561193368
F0.5
tp1659
s(L205L
L143L
tp1660
(F19.579810205649522
F0.5
tp1661
s(L261L
L143L
tp1662
(F112.71802157348723
F0.5
tp1663
s(L258L
L103L
tp1664
(F92.65261502089992
F0.5
tp1665
s(L140L
L141L
tp1666
(F52.445748135396556
F0.5
tp1667
s(L117L
L141L
tp1668
(F133.50662487954705
F0.5
tp1669
s(L117L
L172L
tp1670
(F27.695511646427807
F0.5
tp1671
s(L118L
L172L
tp1672
(F25.72707107805106
F0.5
tp1673
s(L175L
L118L
tp1674
(F34.44097109041783
F0.5
tp1675
s(L138L
L175L
tp1676
(F88.26944668196465
F0.5
tp1677
s(L137L
L138L
tp1678
(F63.79764693214942
F0.5
tp1679
s(L206L
L137L
tp1680
(F83.96586838502073
F0.5
tp1681
s(L77L
L206L
tp1682
(F83.54519964958247
F0.5
tp1683
s(L229L
L77L
tp1684
(F55.6132730360101
F0.5
tp1685
s(L76L
L229L
tp1686
(F51.598778575566
F0.5
tp1687
s(L224L
L76L
tp1688
(F47.855159915866096
F0.5
tp1689
s(L75L
L224L
tp1690
(F40.39441741763356
F0.5
tp1691
s(L74L
L75L
tp1692
(F86.42920975305573
F0.5
tp1693
s(L71L
L74L
tp1694
(F70.98531654152632
F0.5
tp1695
s(L69L
L72L
tp1696
(F74.49331936159024
F0.5
tp1697
s(L76L
L72L
tp1698
(F78.41702319877544
F0.5
tp1699
s(L259L
L68L
tp1700
(F64.8828284152628
F0.5
tp1701
s(L77L
L259L
tp1702
(F84.00916915280258
F0.5
tp1703
s(L135L
L265L
tp1704
(F86.91182355397304
F0.5
tp1705
s(L245L
L135L
tp1706
(F24.230458765023
F0.5
tp1707
s(L246L
L135L
tp1708
(F25.891547794293015
F0.5
tp1709
s(L136L
L246L
tp1710
(F29.582339426571703
F0.5
tp1711
s(L136L
L249L
tp1712
(F45.807817269954775
F0.5
tp1713
s(L137L
L249L
tp1714
(F43.33478326943889
F0.5
tp1715
s(L313L
L136L
tp1716
(F26.40267774074686
F0.5
tp1717
s(L122L
L313L
tp1718
(F88.60545306761769
F0.5
tp1719
s(L200L
L122L
tp1720
(F34.407420766334745
F0.5
tp1721
s(L119L
L200L
tp1722
(F36.41962600218911
F0.5
tp1723
s(L119L
L118L
tp1724
(F89.45253433100063
F0.5
tp1725
s(L117L
L121L
tp1726
(F159.91919687522613
F0.5
tp1727
s(L120L
L121L
tp1728
(F53.237444992409245
F0.5
tp1729
s(L142L
L256L
tp1730
(F82.71839522125205
F0.5
tp1731
s(L133L
L256L
tp1732
(F79.16899455422342
F0.5
tp1733
s(L134L
L133L
tp1734
(F83.20262974704856
F0.5
tp1735
s(L132L
L133L
tp1736
(F18.801802458361482
F0.5
tp1737
s(L170L
L132L
tp1738
(F16.017354921759114
F0.5
tp1739
s(L168L
L132L
tp1740
(F32.74764237537713
F0.5
tp1741
s(L131L
L168L
tp1742
(F51.64271341044283
F0.5
tp1743
s(L130L
L131L
tp1744
(F30.25122953324651
F0.5
tp1745
s(L130L
L129L
tp1746
(F156.5128186661464
F0.5
tp1747
s(L127L
L131L
tp1748
(F100.64684813842177
F0.5
tp1749
s(L129L
L128L
tp1750
(F29.845535233162302
F0.5
tp1751
s(L127L
L128L
tp1752
(F56.8847465809904
F0.5
tp1753
s(L213L
L128L
tp1754
(F29.39156691749323
F0.5
tp1755
s(L126L
L213L
tp1756
(F27.384857255489877
F0.5
tp1757
s(L127L
L125L
tp1758
(F56.568717443274224
F0.5
tp1759
s(L201L
L125L
tp1760
(F23.061593678493132
F0.5
tp1761
s(L124L
L201L
tp1762
(F25.496273398796465
F0.5
tp1763
s(L123L
L124L
tp1764
(F54.99210621975362
F0.5
tp1765
s(L123L
L121L
tp1766
(F46.8276518360634
F0.5
tp1767
s(L124L
L120L
tp1768
(F46.803348590150286
F0.5
tp1769
s(L119L
L120L
tp1770
(F72.56078281633128
F0.5
tp1771
s(L126L
L123L
tp1772
(F51.34300726455444
F0.5
tp1773
s(L82L
L338L
tp1774
(F35.88478919844394
F0.5
tp1775
s(L349L
L338L
tp1776
(F549.2833012734284
F0.5
tp1777
s(L349L
L339L
tp1778
(F215.480856597139
F0.5
tp1779
s(L347L
L346L
tp1780
(F526.6978582009514
F0.5
tp1781
s(L345L
L346L
tp1782
(F318.2776956425969
F0.5
tp1783
s(L344L
L345L
tp1784
(F135.33224349688916
F0.5
tp1785
s(L344L
L386L
tp1786
(F333.57564129408223
F0.5
tp1787
s(L386L
L387L
tp1788
(F236.81568082544862
F0.5
tp1789
s(L339L
L387L
tp1790
(F76.0312174948892
F0.5
tp1791
s(L189L
L327L
tp1792
(F2.239074106094154
F0.5
tp1793
s(L347L
L348L
tp1794
(F49.4774247893443
F0.5
tp1795
ssb.