ccopy_reg
_reconstructor
p0
(capp
Map
p1
c__builtin__
object
p2
Ntp3
Rp4
(dp5
Vvertex
p6
(dp7
L2L
(lp8
F12944371.562791632
aF4888860.371305252
asL5L
(lp9
F12944624.760447828
aF4888685.521610339
asL7L
(lp10
F12944675.39993533
aF4888544.113115301
asL10L
(lp11
F12944675.400008224
aF4888814.509059123
asL11L
(lp12
F12944727.950465169
aF4889024.710896019
asL14L
(lp13
F12944825.407719972
aF4888766.735916444
asL15L
(lp14
F12944590.34599883
aF4888786.40516572
asL16L
(lp15
F12944420.609099852
aF4888729.82619174
asL17L
(lp16
F12944546.592885152
aF4888910.020966666
asL18L
(lp17
F12944607.095038295
aF4888737.989087326
asL19L
(lp18
F12944638.094232995
aF4888648.596016617
asL20L
(lp19
F12944652.60565286
aF4888607.558111539
asL21L
(lp20
F12944707.785553483
aF4888450.753915221
asL22L
(lp21
F12944663.282343585
aF4888435.530771095
asL23L
(lp22
F12944641.973776693
aF4888488.174592781
asL24L
(lp23
F12944556.752583511
aF4888464.759180864
asL25L
(lp24
F12944532.817716496
aF4888531.174696183
asL26L
(lp25
F12944536.604307018
aF4888599.784209999
asL27L
(lp26
F12944791.90138274
aF4888855.2709483355
asL28L
(lp27
F12944751.324935135
aF4888969.358929296
asL29L
(lp28
F12944640.283359924
aF4888933.083631329
asL30L
(lp29
F12944655.39111085
aF4889005.097581402
asL31L
(lp30
F12944610.100090196
aF4888989.836530567
asL32L
(lp31
F12944528.879254628
aF4888963.109411287
asL33L
(lp32
F12945032.897132503
aF4888843.8645124165
asL34L
(lp33
F12945066.346495807
aF4888770.461754267
asL35L
(lp34
F12944948.661431635
aF4889032.917200693
asL36L
(lp35
F12944890.179290926
aF4889011.39251788
asL37L
(lp36
F12944513.311064873
aF4889005.67330326
asL38L
(lp37
F12944340.04767804
aF4888947.690970872
asL39L
(lp38
F12944398.544837574
aF4888789.525213054
asL40L
(lp39
F12944503.218643887
aF4888828.186475459
asL41L
(lp40
F12944452.671914568
aF4888643.349463326
asL42L
(lp41
F12944482.659206282
aF4888654.249603221
asL43L
(lp42
F12944491.659428569
aF4888632.1619808525
asL44L
(lp43
F12944521.524552649
aF4888642.172572813
asL45L
(lp44
F12944424.757550243
aF4888717.902155447
asL46L
(lp45
F12944594.422543386
aF4888776.4238766935
asL47L
(lp46
F12944678.60846394
aF4888803.946152261
asL48L
(lp47
F12944795.57435558
aF4888844.903646279
asL49L
(lp48
F12944908.643466126
aF4888882.227431301
asL50L
(lp49
F12944927.671265503
aF4888903.816683464
asL51L
(lp50
F12944908.277524358
aF4888956.87500133
asL53L
(lp51
F12944193.572907712
aF4888652.251645866
asL55L
(lp52
F12943999.279491302
aF4888572.502910805
asL57L
(lp53
F12943995.635816704
aF4888582.758361153
asL58L
(lp54
F12944198.109354954
aF4888640.941726079
asL61L
(lp55
F12952126.9726608
aF4860538.741998155
asL62L
(lp56
F12952021.998718059
aF4860534.562714898
asL63L
(lp57
F12952019.048637966
aF4860579.797395101
asL64L
(lp58
F12951946.786763577
aF4860578.722386311
asL65L
(lp59
F12951940.579295151
aF4860532.16642385
asL66L
(lp60
F12952025.710184405
aF4860474.525674595
asL67L
(lp61
F12952130.350245645
aF4860478.516226256
asL68L
(lp62
F12952133.477359671
aF4860413.346917299
asL69L
(lp63
F12952028.656367231
aF4860412.211674656
asL70L
(lp64
F12951940.645425558
aF4860473.116664416
asL71L
(lp65
F12951941.345429566
aF4860408.01530372
asL72L
(lp66
F12952030.244146096
aF4860337.735278477
asL74L
(lp67
F12951942.438768413
aF4860337.038407657
asL75L
(lp68
F12951944.180938816
aF4860250.626758322
asL76L
(lp69
F12952031.986316498
aF4860259.337610338
asL77L
(lp70
F12952138.955595199
aF4860264.564121547
asL78L
(lp71
F12952140.0895532
aF4860180.627943909
asL79L
(lp72
F12951948.47656837
aF4860173.951532577
asL80L
(lp73
F12952038.941936813
aF4860176.622107297
asL81L
(lp74
F12952040.277224172
aF4860103.181582654
asL82L
(lp75
F12951953.150035925
aF4860097.840445949
asL83L
(lp76
F12952144.42925622
aF4860108.188891153
asL84L
(lp77
F12952145.43067717
aF4860034.748353776
asL85L
(lp78
F12952041.612486064
aF4860033.079250942
asL86L
(lp79
F12951954.819138758
aF4860031.076332637
asL87L
(lp80
F12952148.805337546
aF4859953.884411585
asL88L
(lp81
F12951956.01904321
aF4859949.450252507
asL89L
(lp82
F12952151.594639605
aF4859896.381284998
asL90L
(lp83
F12952045.626669483
aF4859897.721470989
asL91L
(lp84
F12951954.615891773
aF4859895.177662566
asL92L
(lp85
F12951955.737459783
aF4859859.625746668
asL93L
(lp86
F12952047.749555063
aF4859861.811501236
asL94L
(lp87
F12952048.985613476
aF4859816.954790284
asL95L
(lp88
F12951956.98571854
aF4859814.533679496
asL96L
(lp89
F12951958.551675817
aF4859741.741697602
asL97L
(lp90
F12952051.069167567
aF4859744.745821938
asL98L
(lp91
F12952153.127634343
aF4859844.130384031
asL99L
(lp92
F12952155.753582602
aF4859771.210028624
asL100L
(lp93
F12952156.872359697
aF4859717.882184908
asL101L
(lp94
F12952226.608772898
aF4859715.644659172
asL102L
(lp95
F12952305.295260595
aF4859716.763436265
asL103L
(lp96
F12952302.311873978
aF4859774.939247669
asL104L
(lp97
F12952298.9555996
aF4859846.167339954
asL105L
(lp98
F12952298.209767172
aF4859895.020103745
asL106L
(lp99
F12952299.768151036
aF4859960.320615667
asL107L
(lp100
F12952296.982694343
aF4860038.477401245
asL108L
(lp101
F12952305.502925107
aF4860039.95205681
asL109L
(lp102
F12952373.82866942
aF4860041.099012875
asL110L
(lp103
F12952375.139479922
aF4859962.450679609
asL111L
(lp104
F12952306.026345303
aF4860186.404560734
asL112L
(lp105
F12952371.865739902
aF4860167.947252903
asL113L
(lp106
F12952371.125906272
aF4860188.385081073
asL114L
(lp107
F12945001.92307647
aF4888913.935605337
asL115L
(lp108
F12945000.588561328
aF4888926.809713445
asL117L
(lp109
F12952546.004256867
aF4860280.788273857
asL118L
(lp110
F12952492.619599849
aF4860278.808906323
asL119L
(lp111
F12952488.053407313
aF4860368.1448217435
asL120L
(lp112
F12952484.986727813
aF4860440.640771146
asL121L
(lp113
F12952538.224031476
aF4860440.518100821
asL122L
(lp114
F12952417.274775071
aF4860365.5688235415
asL123L
(lp115
F12952536.48284853
aF4860487.313370437
asL124L
(lp116
F12952481.49074231
aF4860487.313370437
asL125L
(lp117
F12952478.616641814
aF4860535.7856718
asL126L
(lp118
F12952534.566143103
aF4860538.620588597
asL127L
(lp119
F12952474.741320524
aF4860592.221490906
asL128L
(lp120
F12952531.552446444
aF4860595.114649279
asL129L
(lp121
F12952530.06201012
aF4860624.922946327
asL130L
(lp122
F12952373.56844359
aF4860622.468146621
asL131L
(lp123
F12952374.094472386
aF4860592.221490906
asL132L
(lp124
F12952290.067658378
aF4860588.876087123
asL133L
(lp125
F12952288.84025251
aF4860570.114390757
asL134L
(lp126
F12952294.275904799
aF4860487.089507252
asL135L
(lp127
F12952297.352143947
aF4860418.378043438
asL136L
(lp128
F12952302.29901947
aF4860363.127872759
asL137L
(lp129
F12952306.173080368
aF4860274.07586649
asL138L
(lp130
F12952369.952980224
aF4860275.580568596
asL139L
(lp131
F12952497.208335578
aF4860169.059346604
asL140L
(lp132
F12952498.51853821
aF4860145.809176651
asL141L
(lp133
F12952550.940967573
aF4860147.3729532445
asL142L
(lp134
F12952127.048304934
aF4860564.712141673
asL143L
(lp135
F12952399.33138352
aF4859894.407518704
asL144L
(lp136
F12952399.675424991
aF4859846.723952954
asL145L
(lp137
F12952534.077577213
aF4859845.956100389
asL146L
(lp138
F12952193.516462075
aF4860473.023706505
asL152L
(lp139
F12944871.110631991
aF4888637.952647356
asL158L
(lp140
F12952213.088892018
aF4860473.3679623315
asL159L
(lp141
F12952218.0610392
aF4860505.045418878
asL160L
(lp142
F12952152.94183192
aF4860490.610124452
asL161L
(lp143
F12952164.089067476
aF4860470.9620799245
asL162L
(lp144
F12952193.51859375
aF4860481.341386356
asL163L
(lp145
F12952212.23196714
aF4860482.362115814
asL164L
(lp146
F12952152.802843677
aF4860481.795057737
asL165L
(lp147
F12952101.199271187
aF4860492.796246081
asL166L
(lp148
F12952083.73344218
aF4860540.090054665
asL167L
(lp149
F12952084.18711356
aF4860558.236349211
asL168L
(lp150
F12952322.744773656
aF4860586.728013978
asL169L
(lp151
F12952323.626935432
aF4860573.174873988
asL170L
(lp152
F12952288.100067038
aF4860604.772132008
asL171L
(lp153
F12952242.628889602
aF4860603.889970232
asL172L
(lp154
F12952518.335108742
aF4860279.580131726
asL173L
(lp155
F12952518.640372034
aF4860313.362608987
asL174L
(lp156
F12952518.335108742
aF4860260.145029219
asL175L
(lp157
F12952458.198240096
aF4860277.646803751
asL176L
(lp158
F12952457.180683367
aF4860257.499426438
asL180L
(lp159
F12952336.649108434
aF4860185.736486662
asL181L
(lp160
F12952337.671731954
aF4860156.932601243
asL182L
(lp161
F12952306.993026346
aF4860154.8873542035
asL183L
(lp162
F12952236.091118542
aF4860112.789347418
asL184L
(lp163
F12952226.983130123
aF4860112.974284343
asL185L
(lp164
F12952229.369230866
aF4860040.0271294955
asL186L
(lp165
F12952041.55931059
aF4860022.356405639
asL187L
(lp166
F12952124.221388882
aF4860000.881311714
asL188L
(lp167
F12952146.037367716
aF4860001.73349278
asL189L
(lp168
F12951999.29086135
aF4859949.750135703
asL190L
(lp169
F12951986.132360173
aF4860535.365971868
asL191L
(lp170
F12951986.012861103
aF4860544.328949237
asL192L
(lp171
F12951986.490879267
aF4860581.017406917
asL193L
(lp172
F12951985.295822913
aF4860601.213980767
asL194L
(lp173
F12952025.353278168
aF4860503.804007871
asL195L
(lp174
F12952036.08525066
aF4860505.578586853
asL196L
(lp175
F12951986.988575814
aF4860510.310794892
asL197L
(lp176
F12951935.988168005
aF4860498.638894121
asL198L
(lp177
F12951925.591114257
aF4860499.355932311
asL199L
(lp178
F12952449.998262243
aF4860389.565478611
asL200L
(lp179
F12952451.667158635
aF4860366.585955077
asL201L
(lp180
F12952479.8794738
aF4860512.758679848
asL202L
(lp181
F12952462.29301896
aF4860511.051266458
asL203L
(lp182
F12952334.378781008
aF4859959.562044775
asL204L
(lp183
F12952332.500604395
aF4859979.197408189
asL205L
(lp184
F12952397.783086829
aF4859874.889021195
asL206L
(lp185
F12952222.275023926
aF4860270.701969793
asL207L
(lp186
F12952220.585503874
aF4860249.945378478
asL209L
(lp187
F12952195.243145019
aF4860348.901259595
asL210L
(lp188
F12952126.118015273
aF4860596.959471028
asL213L
(lp189
F12952530.725081103
aF4860565.734729734
asL214L
(lp190
F12952535.227204105
aF4860469.796634061
asL215L
(lp191
F12952537.700196622
aF4860405.362086302
asL216L
(lp192
F12952138.885500489
aF4860219.030299804
asL217L
(lp193
F12952120.400110234
aF4860219.379091597
asL218L
(lp194
F12952038.610909496
aF4860193.743677142
asL219L
(lp195
F12951944.963170977
aF4860211.182723951
asL220L
(lp196
F12951955.601017311
aF4860213.101030914
asL221L
(lp197
F12951933.279013129
aF4860211.531515744
asL222L
(lp198
F12951982.71955063
aF4860338.943771036
asL223L
(lp199
F12951983.70603764
aF4860272.354881814
asL224L
(lp200
F12951984.445914187
aF4860253.857968141
asL225L
(lp201
F12951985.92566728
aF4860413.917924028
asL226L
(lp202
F12952082.109663537
aF4860413.9179127375
asL227L
(lp203
F12952080.629910443
aF4860341.163400676
asL228L
(lp204
F12952083.096150551
aF4860278.143120543
asL229L
(lp205
F12952083.342806172
aF4860264.332099194
asL230L
(lp206
F12952140.213270832
aF4860238.516840317
asL231L
(lp207
F12952154.4261133
aF4860239.475985816
asL232L
(lp208
F12952302.81570343
aF4860210.5213155355
asL233L
(lp209
F12952139.767198823
aF4860205.391183957
asL234L
(lp210
F12952220.510767387
aF4860184.424628498
asL235L
(lp211
F12952220.510767387
aF4860198.030579921
asL236L
(lp212
F12952282.072182965
aF4860210.744350531
asL237L
(lp213
F12952297.591067422
aF4860008.139615504
asL238L
(lp214
F12952329.12312944
aF4860379.29838675
asL239L
(lp215
F12952314.73573869
aF4860393.206197809
asL242L
(lp216
F12952286.120836597
aF4860441.16416698
asL245L
(lp217
F12952296.831410686
aF4860442.602906056
asL246L
(lp218
F12952299.389188556
aF4860392.566753342
asL247L
(lp219
F12952129.524282435
aF4860645.36450711
asL248L
(lp220
F12952300.785328383
aF4859823.177592102
asL249L
(lp221
F12952304.821783913
aF4860317.389576085
asL251L
(lp222
F12952311.254465207
aF4860317.825692947
asL253L
(lp223
F12952368.436625838
aF4860220.725078112
asL254L
(lp224
F12952307.655156774
aF4860221.557700977
asL255L
(lp225
F12952377.179165909
aF4860221.002621185
asL256L
(lp226
F12952209.696244566
aF4860568.125495246
asL257L
(lp227
F12952213.35014425
aF4860526.661787123
asL258L
(lp228
F12952394.963996124
aF4859775.2414597515
asL259L
(lp229
F12952135.081784341
aF4860348.483929049
asL260L
(lp230
F12952177.401217498
aF4860349.8319026325
asL261L
(lp231
F12952512.045660462
aF4859893.488736359
asL262L
(lp232
F12952511.90019187
aF4859886.069385258
asL263L
(lp233
F12952405.801977122
aF4859998.0710224155
asL264L
(lp234
F12952374.324336264
aF4859998.276746073
asL265L
(lp235
F12952210.495667562
aF4860415.276820545
asL266L
(lp236
F12952444.584317327
aF4860168.383531919
asL267L
(lp237
F12952373.103481062
aF4860086.177979392
asL268L
(lp238
F12952401.965018524
aF4860088.360767073
asL269L
(lp239
F12952123.356869424
aF4860646.738746461
asL271L
(lp240
F12952016.771260936
aF4860642.946098835
asL272L
(lp241
F12952016.160724847
aF4860649.051515619
asL273L
(lp242
F12952128.582062794
aF4860494.944182492
asL274L
(lp243
F12944620.766342493
aF4888993.265657342
asL275L
(lp244
F12944552.07504011
aF4888901.925808401
asL276L
(lp245
F12944626.346263098
aF4888928.627277608
asL277L
(lp246
F12944656.900081113
aF4888832.731471219
asL278L
(lp247
F12944714.02242199
aF4888851.827609379
asL279L
(lp248
F12944708.127538865
aF4888869.346238357
asL280L
(lp249
F12944721.494821895
aF4888830.406729649
asL281L
(lp250
F12944663.044059435
aF4888810.397308303
asL282L
(lp251
F12944519.053339485
aF4888650.487722033
asL283L
(lp252
F12944517.75296034
aF4888659.734867031
asL284L
(lp253
F12944524.254856065
aF4888675.628385507
asL285L
(lp254
F12944535.524808656
aF4888689.788071737
asL286L
(lp255
F12944556.33087498
aF4888697.445862241
asL287L
(lp256
F12944577.570401018
aF4888705.681596827
asL288L
(lp257
F12944565.000069281
aF4888669.559949496
asL289L
(lp258
F12944574.058978373
aF4888613.386761
asL290L
(lp259
F12944583.771021713
aF4888631.262555209
asL291L
(lp260
F12944543.656060096
aF4888580.168761993
asL292L
(lp261
F12944542.248526175
aF4888568.063887791
asL293L
(lp262
F12944537.322118789
aF4888558.774107207
asL294L
(lp263
F12944528.595372392
aF4888552.1586616915
asL295L
(lp264
F12944528.032338204
aF4888542.446618353
asL296L
(lp265
F12944586.586115329
aF4888549.6250851685
asL297L
(lp266
F12944575.670738515
aF4888461.179680116
asL298L
(lp267
F12944624.442001052
aF4888478.904921086
asL299L
(lp268
F12944636.04397696
aF4888502.968285081
asL300L
(lp269
F12944575.385643126
aF4888461.4149558395
asL301L
(lp270
F12944624.35764806
aF4888478.277476046
asL302L
(lp271
F12944635.969559131
aF4888504.227592897
asL303L
(lp272
F12944792.235650748
aF4888988.020288921
asL304L
(lp273
F12944798.016300034
aF4888958.7316717515
asL305L
(lp274
F12944793.199104056
aF4888976.4589903485
asL306L
(lp275
F12944496.202466715
aF4888853.003284436
asL307L
(lp276
F12944464.558777709
aF4888850.521426475
asL308L
(lp277
F12944451.942679029
aF4888884.233327292
asL309L
(lp278
F12944558.869380236
aF4888875.340006087
asL310L
(lp279
F12944062.50549028
aF4888606.894967533
asL311L
(lp280
F12944043.39623321
aF4888666.611395881
asL312L
(lp281
F12944011.94553235
aF4888651.881367854
asL313L
(lp282
F12952328.679880695
aF4860364.200977101
asL316L
(lp283
F12952052.507074598
aF4859717.179053957
asL317L
(lp284
F12952036.897281233
aF4860205.454300877
asL318L
(lp285
F12944810.772574758
aF4888893.572485414
asL319L
(lp286
F12944782.378543269
aF4888883.3506311895
assVcntVertex
p287
L322L
sVedge
p288
(dp289
(L33L
L34L
tp290
(F80.66489204980644
L1L
tp291
s(L33L
L114L
tp292
(F76.61168455410387
L1L
tp293
s(L114L
L115L
tp294
(F12.943090443658608
L1L
tp295
s(L114L
L49L
tp296
(F98.5215408247537
L1L
tp297
s(L14L
L152L
tp298
(F136.65242977717133
L1L
tp299
s(L14L
L48L
tp300
(F83.66733901881622
L1L
tp301
s(L27L
L48L
tp302
(F10.9987127159091
L1L
tp303
s(L64L
L192L
tp304
(F39.770390020230444
L1L
tp305
s(L193L
L192L
tp306
(F20.231899440236564
L1L
tp307
s(L63L
L192L
tp308
(F32.580608961234525
L1L
tp309
s(L63L
L271L
tp310
(F63.189755732001736
L1L
tp311
s(L269L
L210L
tp312
(F49.85579393659961
L1L
tp313
s(L247L
L269L
tp314
(F6.318664182097606
L1L
tp315
s(L142L
L61L
tp316
(F25.970253683816708
L1L
tp317
s(L167L
L166L
tp318
(F18.151964727912993
L1L
tp319
s(L62L
L190L
tp320
(F35.875351562266154
L1L
tp321
s(L65L
L190L
tp322
(F45.665291419856665
L1L
tp323
s(L191L
L190L
tp324
(F8.963773945762824
L1L
tp325
s(L63L
L62L
tp326
(F45.33077614164288
L1L
tp327
s(L62L
L166L
tp328
(F61.98167186526728
L1L
tp329
s(L61L
L67L
tp330
(F60.320408487862295
L1L
tp331
s(L61L
L273L
tp332
(F43.82737536757026
L1L
tp333
s(L67L
L273L
tp334
(F16.52283924374137
L1L
tp335
s(L165L
L195L
tp336
(F66.35679245364915
L1L
tp337
s(L194L
L195L
tp338
(F10.87770031573521
L1L
tp339
s(L66L
L194L
tp340
(F29.280508559662582
L1L
tp341
s(L28L
L27L
tp342
(F121.08887438560137
L1L
tp343
s(L11L
L28L
tp344
(F60.08499035754911
L1L
tp345
s(L11L
L30L
tp346
(F75.16343532153797
L1L
tp347
s(L31L
L30L
tp348
(F47.793056237177886
L1L
tp349
s(L32L
L31L
tp350
(F85.50533922179987
L1L
tp351
s(L37L
L32L
tp352
(F45.32166625455943
L1L
tp353
s(L31L
L274L
tp354
(F11.203921121157713
L1L
tp355
s(L30L
L274L
tp356
(F36.590559039131364
L1L
tp357
s(L29L
L275L
tp358
(F93.5495463067587
L1L
tp359
s(L29L
L28L
tp360
(F116.81664550796987
L1L
tp361
s(L29L
L276L
tp362
(F14.632216388717048
L1L
tp363
s(L275L
L276L
tp364
(F78.92517356317097
L1L
tp365
s(L277L
L278L
tp366
(F60.2297627410201
L1L
tp367
s(L278L
L280L
tp368
(F22.68679899750547
L1L
tp369
s(L281L
L10L
tp370
(F13.022133668526779
L1L
tp371
s(L281L
L280L
tp372
(F61.78081073237207
L1L
tp373
s(L10L
L280L
tp374
(F48.759283993060016
L1L
tp375
s(L27L
L281L
tp376
(F136.4472547883245
L1L
tp377
s(L276L
L277L
tp378
(F100.64562324463053
L1L
tp379
s(L17L
L275L
tp380
(F9.776789366552082
L1L
tp381
s(L32L
L17L
tp382
(F55.965664997686716
L1L
tp383
s(L2L
L17L
tp384
(F181.9357648065397
L1L
tp385
s(L38L
L2L
tp386
(F92.83278724981824
L1L
tp387
s(L37L
L38L
tp388
(F182.70783257931603
L1L
tp389
s(L41L
L42L
tp390
(F31.90690699656626
L1L
tp391
s(L43L
L42L
tp392
(F23.850934218680884
L1L
tp393
s(L44L
L43L
tp394
(F31.498215627768257
L1L
tp395
s(L44L
L26L
tp396
(F44.99080232523941
L1L
tp397
s(L44L
L282L
tp398
(F8.674595151761613
L1L
tp399
s(L283L
L282L
tp400
(F9.338130248505353
L1L
tp401
s(L283L
L284L
tp402
(F17.172028929899973
L1L
tp403
s(L285L
L284L
tp404
(F18.097197173882705
L1L
tp405
s(L286L
L285L
tp406
(F22.17056948409932
L1L
tp407
s(L286L
L287L
tp408
(F22.78035975410735
L1L
tp409
s(L286L
L288L
tp410
(F29.202381058313783
L1L
tp411
s(L26L
L290L
tp412
(F56.70613011131514
L1L
tp413
s(L289L
L290L
tp414
(F20.34374116072673
L1L
tp415
s(L19L
L26L
tp416
(F112.6179272586303
L1L
tp417
s(L291L
L292L
tp418
(F12.18643225833862
L1L
tp419
s(L291L
L293L
tp420
(F22.312553997711078
L1L
tp421
s(L292L
L294L
tp422
(F20.961508187254765
L1L
tp423
s(L293L
L295L
tp424
(F18.78528454891008
L1L
tp425
s(L26L
L291L
tp426
(F20.8444962031022
L1L
tp427
s(L295L
L293L
tp428
(F18.78528454891008
L1L
tp429
s(L294L
L295L
tp430
(F9.72834997853658
L1L
tp431
s(L25L
L296L
tp432
(F56.845910730123
L1L
tp433
s(L25L
L24L
tp434
(F70.59673175193417
L1L
tp435
s(L295L
L25L
tp436
(F12.24565534425109
L1L
tp437
s(L24L
L300L
tp438
(F18.9307884580307
L1L
tp439
s(L301L
L300L
tp440
(F51.79383993205656
L1L
tp441
s(L302L
L301L
tp442
(F28.429650776660385
L1L
tp443
s(L302L
L23L
tp444
(F17.13912020033038
L1L
tp445
s(L22L
L23L
tp446
(F56.79284272402283
L1L
tp447
s(L21L
L22L
tp448
(F47.03487863630894
L1L
tp449
s(L289L
L26L
tp450
(F39.84823459134132
L1L
tp451
s(L290L
L19L
tp452
(F57.02157634097834
L1L
tp453
s(L51L
L36L
tp454
(F57.44306454297285
L1L
tp455
s(L35L
L36L
tp456
(F62.31751561229086
L1L
tp457
s(L28L
L36L
tp458
(F145.0770646639553
L1L
tp459
s(L28L
L305L
tp460
(F42.471836430690324
L1L
tp461
s(L304L
L305L
tp462
(F18.370171521547647
L1L
tp463
s(L303L
L305L
tp464
(F11.60137349445044
L1L
tp465
s(L36L
L305L
tp466
(F103.08010473010195
L1L
tp467
s(L35L
L115L
tp468
(F118.1322379722268
L1L
tp469
s(L51L
L50L
tp470
(F56.491612566962466
L1L
tp471
s(L115L
L50L
tp472
(F76.45659852554004
L1L
tp473
s(L50L
L27L
tp474
(F144.18789638719812
L1L
tp475
s(L48L
L49L
tp476
(F119.07009989113008
L1L
tp477
s(L48L
L47L
tp478
(F123.92956113654117
L1L
tp479
s(L46L
L47L
tp480
(F88.57056436448656
L1L
tp481
s(L281L
L15L
tp482
(F76.55475766770529
L1L
tp483
s(L39L
L39L
tp484
(F0.0
L1L
tp485
s(L40L
L307L
tp486
(F44.647903532248215
L1L
tp487
s(L308L
L307L
tp488
(F35.99525250090955
L1L
tp489
s(L306L
L40L
tp490
(F25.789547299550073
L1L
tp491
s(L306L
L309L
tp492
(F66.52872450541292
L1L
tp493
s(L275L
L309L
tp494
(F27.44026134028208
L1L
tp495
s(L15L
L309L
tp496
(F94.34078306448053
L1L
tp497
s(L46L
L15L
tp498
(F10.781667132238363
L1L
tp499
s(L40L
L39L
tp500
(F111.58538855434811
L1L
tp501
s(L15L
L46L
tp502
(F10.781667132238363
L1L
tp503
s(L18L
L46L
tp504
(F40.470052642671874
L1L
tp505
s(L16L
L15L
tp506
(F178.91840366778288
L1L
tp507
s(L39L
L16L
tp508
(F63.645933222561936
L1L
tp509
s(L2L
L39L
tp510
(F75.81028678813287
L1L
tp511
s(L45L
L41L
tp512
(F79.60725870255305
L1L
tp513
s(L46L
L45L
tp514
(F179.47423702522437
L1L
tp515
s(L18L
L5L
tp516
(F55.36156460388564
L1L
tp517
s(L19L
L5L
tp518
(F39.25925748974534
L1L
tp519
s(L20L
L19L
tp520
(F43.5280479647993
L1L
tp521
s(L7L
L21L
tp522
(F98.81684321398659
L1L
tp523
s(L7L
L20L
tp524
(F67.41547938660855
L1L
tp525
s(L45L
L58L
tp526
(F239.35812523547563
L1L
tp527
s(L16L
L53L
tp528
(F239.92341008924478
L1L
tp529
s(L310L
L311L
tp530
(F62.69940606103154
L1L
tp531
s(L312L
L310L
tp532
(F67.67632939084913
L1L
tp533
s(L58L
L55L
tp534
(F210.2788294533065
L1L
tp535
s(L53L
L310L
tp536
(F138.69353330855256
L1L
tp537
s(L57L
L310L
tp538
(F71.0923977068084
L1L
tp539
s(L61L
L166L
tp540
(F43.2602274990898
L1L
tp541
s(L142L
L256L
tp542
(F82.71839522125205
L1L
tp543
s(L133L
L170L
tp544
(F34.66564442183292
L1L
tp545
s(L70L
L197L
tp546
(F25.94367470178097
L1L
tp547
s(L70L
L66L
tp548
(F85.07642744792611
L1L
tp549
s(L198L
L197L
tp550
(F10.421749872856566
L1L
tp551
s(L196L
L190L
tp552
(F25.069802522741675
L1L
tp553
s(L194L
L62L
tp554
(F30.941091310645938
L1L
tp555
s(L165L
L273L
tp556
(F27.466905668513878
L1L
tp557
s(L66L
L67L
tp558
(F104.71612540105879
L1L
tp559
s(L164L
L67L
tp560
(F22.69074468257664
L1L
tp561
s(L160L
L164L
tp562
(F8.816162369062463
L1L
tp563
s(L162L
L164L
tp564
(F40.71827749072158
L1L
tp565
s(L163L
L162L
tp566
(F18.741190789969504
L1L
tp567
s(L163L
L158L
tp568
(F9.034883348452889
L1L
tp569
s(L162L
L146L
tp570
(F8.317680124471643
L1L
tp571
s(L159L
L163L
tp572
(F23.420297157864564
L1L
tp573
s(L245L
L133L
tp574
(F127.761642677676
L1L
tp575
s(L256L
L257L
tp576
(F41.62439277818698
L1L
tp577
s(L133L
L256L
tp578
(F79.16899455422342
L1L
tp579
s(L132L
L168L
tp580
(F32.74764237537713
L1L
tp581
s(L169L
L168L
tp582
(F13.581819207756253
L1L
tp583
s(L130L
L131L
tp584
(F30.25122953324651
L1L
tp585
s(L168L
L131L
tp586
(F51.64271341044283
L1L
tp587
s(L127L
L131L
tp588
(F100.64684813842177
L1L
tp589
s(L128L
L127L
tp590
(F56.8847465809904
L1L
tp591
s(L129L
L128L
tp592
(F29.845535233162302
L1L
tp593
s(L129L
L130L
tp594
(F156.5128186661464
L1L
tp595
s(L128L
L213L
tp596
(F29.39156691749323
L1L
tp597
s(L126L
L213L
tp598
(F27.384857255489877
L1L
tp599
s(L127L
L125L
tp600
(F56.568717443274224
L1L
tp601
s(L201L
L125L
tp602
(F23.061593678493132
L1L
tp603
s(L124L
L201L
tp604
(F25.496273398796465
L1L
tp605
s(L202L
L201L
tp606
(F17.669144131449098
L1L
tp607
s(L123L
L124L
tp608
(F54.99210621975362
L1L
tp609
s(L126L
L123L
tp610
(F51.34300726455444
L1L
tp611
s(L214L
L121L
tp612
(F29.431504938942904
L1L
tp613
s(L123L
L214L
tp614
(F17.56168261282718
L1L
tp615
s(L125L
L126L
tp616
(F56.02127674140618
L1L
tp617
s(L121L
L120L
tp618
(F53.237444992409245
L1L
tp619
s(L124L
L120L
tp620
(F46.803348590150286
L1L
tp621
s(L119L
L120L
tp622
(F72.56078281633128
L1L
tp623
s(L199L
L200L
tp624
(F23.04004594211547
L1L
tp625
s(L122L
L200L
tp626
(F34.407420766334745
L1L
tp627
s(L119L
L200L
tp628
(F36.41962600218911
L1L
tp629
s(L119L
L118L
tp630
(F89.45253433100063
L1L
tp631
s(L172L
L118L
tp632
(F25.72707107805106
L1L
tp633
s(L117L
L172L
tp634
(F27.695511646427807
L1L
tp635
s(L174L
L172L
tp636
(F19.43510250747204
L1L
tp637
s(L173L
L172L
tp638
(F33.78385643377933
L1L
tp639
s(L245L
L242L
tp640
(F10.806774145629536
L1L
tp641
s(L135L
L245L
tp642
(F24.230458765023
L1L
tp643
s(L246L
L135L
tp644
(F25.891547794293015
L1L
tp645
s(L246L
L239L
tp646
(F15.35986621732999
L1L
tp647
s(L136L
L313L
tp648
(F26.40267774074686
L1L
tp649
s(L246L
L136L
tp650
(F29.582339426571703
L1L
tp651
s(L249L
L251L
tp652
(F6.447448064903579
L1L
tp653
s(L314L
L122L
tp654
(NL1L
tp655
s(L249L
L315L
tp656
(NL1L
tp657
s(L249L
L137L
tp658
(F43.33478326943889
L1L
tp659
s(L138L
L137L
tp660
(F63.79764693214942
L1L
tp661
s(L279L
L278L
tp662
(F18.483830996908456
L1L
tp663
s(L274L
L29L
tp664
(F63.26760801886791
L1L
tp665
s(L69L
L66L
tp666
(F62.383608276673606
L1L
tp667
s(L70L
L71L
tp668
(F65.10512399288821
L1L
tp669
s(L74L
L71L
tp670
(F70.98531654152632
L1L
tp671
s(L74L
L75L
tp672
(F86.42920975305573
L1L
tp673
s(L219L
L75L
tp674
(F39.45179000573622
L1L
tp675
s(L220L
L219L
tp676
(F10.809425342268716
L1L
tp677
s(L221L
L219L
tp678
(F11.689362700344523
L1L
tp679
s(L79L
L219L
tp680
(F37.396598405714535
L1L
tp681
s(L82L
L79L
tp682
(F76.25443466942036
L1L
tp683
s(L86L
L82L
tp684
(F66.78497383811468
L1L
tp685
s(L88L
L86L
tp686
(F81.63489895946816
L1L
tp687
s(L88L
L189L
tp688
(F43.27285725436327
L1L
tp689
s(L87L
L189L
tp690
(F149.57162441278933
L1L
tp691
s(L106L
L87L
tp692
(F151.09995294355994
L1L
tp693
s(L203L
L106L
tp694
(F34.61894187957621
L1L
tp695
s(L110L
L203L
tp696
(F40.86292680660731
L1L
tp697
s(L264L
L110L
tp698
(F35.8353386684036
L1L
tp699
s(L109L
L264L
tp700
(F42.82513537280527
L1L
tp701
s(L267L
L112L
tp702
(F81.77864081602249
L1L
tp703
s(L267L
L113L
tp704
(F102.22623164401121
L1L
tp705
s(L267L
L109L
tp706
(F45.08479921653369
L1L
tp707
s(L112L
L266L
tp708
(F72.71988615199488
L1L
tp709
s(L139L
L266L
tp710
(F52.62835758851772
L1L
tp711
s(L140L
L139L
tp712
(F23.287057216315507
L1L
tp713
s(L141L
L140L
tp714
(F52.445748135396556
L1L
tp715
s(L117L
L141L
tp716
(F133.50662487954705
L1L
tp717
s(L175L
L118L
tp718
(F34.44097109041783
L1L
tp719
s(L138L
L175L
tp720
(F88.26944668196465
L1L
tp721
s(L176L
L175L
tp722
(F20.17305713800775
L1L
tp723
s(L255L
L253L
tp724
(F8.746944440572355
L1L
tp725
s(L113L
L253L
tp726
(F32.45161995562601
L1L
tp727
s(L254L
L253L
tp728
(F60.787171692651235
L1L
tp729
s(L254L
L232L
tp730
(F12.050813760353838
L1L
tp731
s(L236L
L232L
tp732
(F20.7447194697998
L1L
tp733
s(L111L
L232L
tp734
(F24.329531097416755
L1L
tp735
s(L313L
L122L
tp736
(F88.60545306761769
L1L
tp737
s(L238L
L313L
tp738
(F15.103914974413026
L1L
tp739
s(L136L
L249L
tp740
(F45.807817269954775
L1L
tp741
s(L254L
L137L
tp742
(F52.53907364352162
L1L
tp743
s(L138L
L253L
tp744
(F54.87644455311791
L1L
tp745
s(L111L
L180L
tp746
(F30.630049701736006
L1L
tp747
s(L113L
L180L
tp748
(F34.57838402095314
L1L
tp749
s(L181L
L180L
tp750
(F28.82203278900939
L1L
tp751
s(L111L
L182L
tp752
(F31.532027839934877
L1L
tp753
s(L181L
L182L
tp754
(F30.746804927747256
L1L
tp755
s(L108L
L182L
tp756
(F114.94495634247787
L1L
tp757
s(L109L
L108L
tp758
(F68.33537037316987
L1L
tp759
s(L107L
L237L
tp760
(F30.343885075739575
L1L
tp761
s(L107L
L108L
tp762
(F8.646903568083882
L1L
tp763
s(L237L
L106L
tp764
(F47.86853286330309
L1L
tp765
s(L204L
L203L
tp766
(F19.724985267086208
L1L
tp767
s(L185L
L107L
tp768
(F67.6312213471725
L1L
tp769
s(L84L
L185L
tp770
(F84.10437723306202
L1L
tp771
s(L84L
L188L
tp772
(F33.020434885194874
L1L
tp773
s(L87L
L188L
tp774
(F47.92907497731844
L1L
tp775
s(L187L
L188L
tp776
(F21.83261654204978
L1L
tp777
s(L83L
L84L
tp778
(F73.44736465102713
L1L
tp779
s(L83L
L184L
tp780
(F82.69245482239624
L1L
tp781
s(L185L
L184L
tp782
(F72.98616908127059
L1L
tp783
s(L183L
L184L
tp784
(F9.109865789755391
L1L
tp785
s(L78L
L83L
tp786
(F72.56892851956522
L1L
tp787
s(L78L
L234L
tp788
(F80.51078502452177
L1L
tp789
s(L111L
L234L
tp790
(F85.53849541565725
L1L
tp791
s(L235L
L234L
tp792
(F13.605951422825456
L1L
tp793
s(L78L
L216L
tp794
(F38.42122696174459
L1L
tp795
s(L217L
L216L
tp796
(F18.488680553325676
L1L
tp797
s(L230L
L216L
tp798
(F19.531723816731688
L1L
tp799
s(L231L
L230L
tp800
(F14.245169395704018
L1L
tp801
s(L77L
L230L
tp802
(F26.07762656886717
L1L
tp803
s(L206L
L207L
tp804
(F20.82523855899052
L1L
tp805
s(L206L
L77L
tp806
(F83.54519964958247
L1L
tp807
s(L228L
L229L
tp808
(F13.813223726146449
L1L
tp809
s(L77L
L229L
tp810
(F55.6132730360101
L1L
tp811
s(L76L
L229L
tp812
(F51.598778575566
L1L
tp813
s(L76L
L224L
tp814
(F47.855159915866096
L1L
tp815
s(L75L
L224L
tp816
(F40.39441741763356
L1L
tp817
s(L223L
L224L
tp818
(F18.511705289043675
L1L
tp819
s(L72L
L76L
tp820
(F78.41702319877544
L1L
tp821
s(L222L
L74L
tp822
(F40.32582083023821
L1L
tp823
s(L72L
L222L
tp824
(F47.53995822912085
L1L
tp825
s(L227L
L72L
tp826
(F50.50225015465045
L1L
tp827
s(L259L
L227L
tp828
(F54.94175740473273
L1L
tp829
s(L259L
L260L
tp830
(F42.34089578008794
L1L
tp831
s(L259L
L209L
tp832
(F60.16280814034608
L1L
tp833
s(L259L
L77L
tp834
(F84.00916915280258
L1L
tp835
s(L68L
L259L
tp836
(F64.8828284152628
L1L
tp837
s(L265L
L68L
tp838
(F77.04248358466901
L1L
tp839
s(L226L
L69L
tp840
(F53.48052107381617
L1L
tp841
s(L69L
L225L
tp842
(F42.764751901625594
L1L
tp843
s(L225L
L71L
tp844
(F44.96930643438379
L1L
tp845
s(L121L
L215L
tp846
(F35.15991694909235
L1L
tp847
s(L117L
L215L
tp848
(F124.85027898870453
L1L
tp849
s(L210L
L142L
tp850
(F32.26074533234143
L1L
tp851
s(L170L
L171L
tp852
(F45.479733803679935
L1L
tp853
s(L86L
L85L
tp854
(F86.81645476758042
L1L
tp855
s(L186L
L85L
tp856
(F10.722977152862084
L1L
tp857
s(L81L
L85L
tp858
(F70.11504714231027
L1L
tp859
s(L82L
L81L
tp860
(F87.29074792369636
L1L
tp861
s(L83L
L81L
tp862
(F104.27233054856546
L1L
tp863
s(L84L
L85L
tp864
(F103.8316074646215
L1L
tp865
s(L218L
L80L
tp866
(F17.12476957622239
L1L
tp867
s(L79L
L80L
tp868
(F90.50477808967858
L1L
tp869
s(L78L
L80L
tp870
(F101.22690861432065
L1L
tp871
s(L263L
L264L
tp872
(F31.478313109240137
L1L
tp873
s(L268L
L267L
tp874
(F28.943961490033505
L1L
tp875
s(L161L
L164L
tp876
(F15.643920734015209
L1L
tp877
s(L163L
L134L
tp878
(F82.18002151606288
L1L
tp879
s(L226L
L68L
tp880
(F51.37086958524758
L1L
tp881
s(L135L
L265L
tp882
(F86.91182355397304
L1L
tp883
s(L206L
L137L
tp884
(F83.96586838502073
L1L
tp885
s(L271L
L272L
tp886
(F6.135867373346111
L1L
tp887
s(L269L
L271L
tp888
(F106.653064244602
L1L
tp889
s(L87L
L89L
tp890
(F57.570737125989176
L1L
tp891
s(L98L
L89L
tp892
(F52.273384477517666
L1L
tp893
s(L99L
L98L
tp894
(F72.96762183931654
L1L
tp895
s(L100L
L99L
tp896
(F53.33957796631271
L1L
tp897
s(L100L
L101L
tp898
(F69.77230000225038
L1L
tp899
s(L102L
L101L
tp900
(F78.6944407711576
L1L
tp901
s(L103L
L102L
tp902
(F58.25225856698592
L1L
tp903
s(L248L
L103L
tp904
(F48.26249284030742
L1L
tp905
s(L104L
L248L
tp906
(F23.062445960392946
L1L
tp907
s(L105L
L104L
tp908
(F48.85845675096535
L1L
tp909
s(L89L
L105L
tp910
(F146.6214460641737
L1L
tp911
s(L91L
L90L
tp912
(F91.04632129126854
L1L
tp913
s(L89L
L90L
tp914
(F105.97644450629153
L1L
tp915
s(L93L
L90L
tp916
(F35.97266421723588
L1L
tp917
s(L94L
L93L
tp918
(F44.87373795232459
L1L
tp919
s(L97L
L94L
tp920
(F72.23902205348924
L1L
tp921
s(L91L
L92L
tp922
(F35.56960273628293
L1L
tp923
s(L95L
L96L
tp924
(F72.80882398574842
L1L
tp925
s(L95L
L92L
tp926
(F45.109341292459995
L1L
tp927
s(L93L
L92L
tp928
(F92.0380530044128
L1L
tp929
s(L96L
L97L
tp930
(F92.56625218088224
L1L
tp931
s(L94L
L95L
tp932
(F92.03174694429032
L1L
tp933
s(L97L
L316L
tp934
(F27.604243760022484
L1L
tp935
s(L100L
L316L
tp936
(F104.36765364247992
L1L
tp937
s(L104L
L98L
tp938
(F145.84219087983234
L1L
tp939
s(L99L
L103L
tp940
(F146.60572923875938
L1L
tp941
s(L258L
L103L
tp942
(F92.65261502089992
L1L
tp943
s(L143L
L105L
tp944
(F101.12347182227519
L1L
tp945
s(L205L
L143L
tp946
(F19.579810205649522
L1L
tp947
s(L144L
L205L
tp948
(F28.228567316309473
L1L
tp949
s(L145L
L144L
tp950
(F134.40434561193368
L1L
tp951
s(L261L
L143L
tp952
(F112.71802157348723
L1L
tp953
s(L262L
L261L
tp954
(F7.4207770404461275
L1L
tp955
s(L105L
L143L
tp956
(F101.12347182227519
L1L
tp957
s(L220L
L317L
tp958
(F81.6550978686659
L1L
tp959
s(L217L
L317L
tp960
(F84.65590497815737
L1L
tp961
s(L218L
L317L
tp962
(F11.835338190156808
L1L
tp963
s(L16L
L45L
tp964
(F12.625065630456898
L1L
tp965
s(L47L
L10L
tp966
(F11.03943791312914
L1L
tp967
s(L50L
L49L
tp968
(F28.77764684760323
L1L
tp969
s(L318L
L319L
tp970
(F30.177927828242666
L1L
tp971
s(L27L
L319L
tp972
(F29.650515354461945
L1L
tp973
s(L27L
L318L
tp974
(F42.69812209878905
L1L
tp975
s(L320L
L321L
tp976
(F136.02651838651067
L1L
tp977
ssVbuilding
p978
(dp979
sVbuildingPoint
p980
(dp981
sVcntBuilding
p982
L0L
sb.