ccopy_reg
_reconstructor
p0
(capp
Map
p1
c__builtin__
object
p2
Ntp3
Rp4
(dp5
Vvertex
p6
(dp7
I2
(lp8
F12944371.562791632
aF4888860.371305252
asI5
(lp9
F12944624.760447828
aF4888685.521610339
asI7
(lp10
F12944675.39993533
aF4888544.113115301
asI10
(lp11
F12944675.400008224
aF4888814.509059123
asI11
(lp12
F12944727.950465169
aF4889024.710896019
asI13
(lp13
F12945002.16834788
aF4888922.47637251
asI14
(lp14
F12944825.407719972
aF4888766.735916444
asI15
(lp15
F12944590.34599883
aF4888786.40516572
asI16
(lp16
F12944420.609099852
aF4888729.82619174
asI17
(lp17
F12944546.592885152
aF4888910.020966666
asI18
(lp18
F12944607.095038295
aF4888737.989087326
asI19
(lp19
F12944638.094232995
aF4888648.596016617
asI20
(lp20
F12944652.60565286
aF4888607.558111539
asI21
(lp21
F12944707.785553483
aF4888450.753915221
asI22
(lp22
F12944663.282343585
aF4888435.530771095
asI23
(lp23
F12944641.973776693
aF4888488.174592781
asI24
(lp24
F12944556.752583511
aF4888464.759180864
asI25
(lp25
F12944532.817716496
aF4888531.174696183
asI26
(lp26
F12944536.604307018
aF4888599.784209999
asI27
(lp27
F12944791.90138274
aF4888855.2709483355
asI28
(lp28
F12944751.324935135
aF4888969.358929296
asI29
(lp29
F12944640.283359924
aF4888933.083631329
asI30
(lp30
F12944655.39111085
aF4889005.097581402
asI31
(lp31
F12944610.100090196
aF4888989.836530567
asI32
(lp32
F12944528.879254628
aF4888963.109411287
asI33
(lp33
F12945032.897132503
aF4888843.8645124165
asI34
(lp34
F12945066.346495807
aF4888770.461754267
asI35
(lp35
F12944948.661431635
aF4889032.917200693
asI36
(lp36
F12944890.179290926
aF4889011.39251788
asI37
(lp37
F12944513.311064873
aF4889005.67330326
asI38
(lp38
F12944340.04767804
aF4888947.690970872
asI39
(lp39
F12944398.544837574
aF4888789.525213054
asI40
(lp40
F12944503.218643887
aF4888828.186475459
asI41
(lp41
F12944452.671914568
aF4888643.349463326
asI42
(lp42
F12944482.659206282
aF4888654.249603221
asI43
(lp43
F12944491.659428569
aF4888632.1619808525
asI44
(lp44
F12944521.524552649
aF4888642.172572813
asI45
(lp45
F12944424.757550243
aF4888717.902155447
asI46
(lp46
F12944594.422543386
aF4888776.4238766935
asI47
(lp47
F12944678.60846394
aF4888803.946152261
asI48
(lp48
F12944795.57435558
aF4888844.903646279
asI49
(lp49
F12944908.643466126
aF4888882.227431301
asI50
(lp50
F12944927.671265503
aF4888903.816683464
asI51
(lp51
F12944908.277524358
aF4888956.87500133
asI53
(lp52
F12944193.572907712
aF4888652.251645866
asI55
(lp53
F12943999.279491302
aF4888572.502910805
asI57
(lp54
F12943995.635816704
aF4888582.758361153
asI58
(lp55
F12944198.109354954
aF4888640.941726079
asI59
(lp56
F12952017.0819054
aF4860641.503390205
asI60
(lp57
F12952123.285051307
aF4860644.945162817
asI61
(lp58
F12952126.9726608
aF4860538.741998155
asI62
(lp59
F12952021.998718059
aF4860534.562714898
asI63
(lp60
F12952019.048637966
aF4860579.797395101
asI64
(lp61
F12951946.786763577
aF4860578.722386311
asI65
(lp62
F12951940.579295151
aF4860532.16642385
asI66
(lp63
F12952025.710184405
aF4860474.525674595
asI67
(lp64
F12952130.350245645
aF4860478.516226256
asI68
(lp65
F12952133.477359671
aF4860413.346917299
asI69
(lp66
F12952028.656367231
aF4860412.211674656
asI70
(lp67
F12951940.645425558
aF4860473.116664416
asI71
(lp68
F12951941.345429566
aF4860408.01530372
asI72
(lp69
F12952030.244146096
aF4860337.735278477
asI73
(lp70
F12952135.471254393
aF4860342.961789686
asI74
(lp71
F12951942.438768413
aF4860337.038407657
asI75
(lp72
F12951944.180938816
aF4860250.626758322
asI76
(lp73
F12952031.986316498
aF4860259.337610338
asI77
(lp74
F12952138.955595199
aF4860264.564121547
asI78
(lp75
F12952140.0895532
aF4860180.627943909
asI79
(lp76
F12951948.47656837
aF4860173.951532577
asI80
(lp77
F12952038.941936813
aF4860176.622107297
asI81
(lp78
F12952040.277224172
aF4860103.181582654
asI82
(lp79
F12951953.150035925
aF4860097.840445949
asI83
(lp80
F12952144.42925622
aF4860108.188891153
asI84
(lp81
F12952145.43067717
aF4860034.748353776
asI85
(lp82
F12952041.612486064
aF4860033.079250942
asI86
(lp83
F12951954.819138758
aF4860031.076332637
assVcntVertex
p84
I87
sVedge
p85
(dp86
(I33
I34
tp87
(NI1
tp88
s(I13
I33
tp89
(NI1
tp90
ssb.